EXPORTS
    AftershockClassPointers @1 DATA
    Log @2 DATA
    Plugins @3 DATA
    Server @4 DATA
    Tasks @5 DATA
    _Z10versionStrv @6
    _Z11doHeartBeatR10ServerInfo @7
    _Z11versionDatev @8
    _Z15isDLLDebugBuildv @9
    _Z17isDLLReleaseBuildv @10
    _Z22assignInternalPointersRK24_AftershockClassPointers @11
    _Z4beatv @12
    _Z7versionv @13
    _Z8demangleRKSs @14
    _Z9UriEncodeRKSs @15
    _Z9rangeRandii @16
    _ZGVN5boost16exception_detail37exception_ptr_static_exception_objectINS0_10bad_alloc_EE1eE @17 DATA
    _ZGVN5boost16exception_detail37exception_ptr_static_exception_objectINS0_14bad_exception_EE1eE @18 DATA
    _ZGVN5boost4asio6detail10call_stackINS1_14strand_service11strand_implEhE4top_E @19 DATA
    _ZGVN5boost4asio6detail10call_stackINS1_19win_iocp_io_serviceEhE4top_E @20 DATA
    _ZGVN5boost4asio6detail12service_baseINS0_21stream_socket_serviceINS0_2ip3tcpEEEE2idE @21 DATA
    _ZGVN5boost4asio6detail12service_baseINS0_23socket_acceptor_serviceINS0_2ip3tcpEEEE2idE @22 DATA
    _ZGVN5boost4asio6detail12service_baseINS0_2ip16resolver_serviceINS3_3tcpEEEE2idE @23 DATA
    _ZGVN5boost4asio6detail12service_baseINS1_14select_reactorEE2idE @24 DATA
    _ZGVN5boost4asio6detail12service_baseINS1_14strand_serviceEE2idE @25 DATA
    _ZGVN5boost4asio6detail12service_baseINS1_19win_iocp_io_serviceEE2idE @26 DATA
    _ZGVN5boost9date_time10time_facetINS_10posix_time5ptimeEcSt19ostreambuf_iteratorIcSt11char_traitsIcEEE2idE @27 DATA
    _ZGVZN5boost16exception_detail27get_static_exception_objectINS0_10bad_alloc_EEENS_13exception_ptrEvE2ep @28 DATA
    _ZGVZN5boost16exception_detail27get_static_exception_objectINS0_14bad_exception_EEENS_13exception_ptrEvE2ep @29 DATA
    _ZGVZN5boost4asio5error17get_misc_categoryEvE8instance @30 DATA
    _ZN10ServerInfoD1Ev @31
    _ZN10eventChainI17onConnectionEventED1Ev @32
    _ZN11PluginNoLibD0Ev @33
    _ZN11PluginNoLibD1Ev @34
    _ZN11httpRequest11sendRequestEj @35
    _ZN11serverClass14new_connectionESt10shared_ptrIN5boost4asio19basic_stream_socketINS2_2ip3tcpENS2_21stream_socket_serviceIS5_EEEEERKNS1_6system10error_codeE @36
    _ZN11serverClass18on_connection_dataESt10shared_ptrIcES0_IN5boost4asio19basic_stream_socketINS3_2ip3tcpENS3_21stream_socket_serviceIS6_EEEEERKNS2_6system10error_codeEj @37
    _ZN11serverClass4stepEv @38
    _ZN11serverClass6acceptEv @39
    _ZN11serverClass7getInfoEv @40
    _ZN11serverClassC1Ev @41
    _ZN11serverClassC2Ev @42
    _ZN11serverClassD1Ev @43
    _ZN11serverClassD2Ev @44
    _ZN12outputLogger11beginOutputEPKc @45
    _ZN12outputLogger4INFOE @46 DATA
    _ZN12outputLogger5DEBUGE @47 DATA
    _ZN12outputLogger5ERRORE @48 DATA
    _ZN12outputLogger5writeEPKc @49
    _ZN12outputLogger5writeERKSs @50
    _ZN12outputLogger5writeIA21_cImEEERS_RKT_DpRKT0_ @51
    _ZN12outputLogger5writeIjIA18_cEEERS_RKT_DpRKT0_ @52
    _ZN12outputLogger5writeIlEERS_RKT_ @53
    _ZN12outputLogger6silentEb @54
    _ZN12outputLogger6silentEv @55
    _ZN12outputLogger7setFileEPKcbb @56
    _ZN12outputLogger9endOutputEv @57
    _ZN12outputLogger9setPrefixEPKc @58
    _ZN12outputLoggerC1EPKc @59
    _ZN12outputLoggerC1EPKcS1_bb @60
    _ZN12outputLoggerC1Ev @61
    _ZN12outputLoggerC2EPKc @62
    _ZN12outputLoggerC2EPKcS1_bb @63
    _ZN12outputLoggerC2Ev @64
    _ZN12outputLoggerD1Ev @65
    _ZN12outputLoggerD2Ev @66
    _ZN13FunctionChainIFbcSt10shared_ptrIN5boost4asio19basic_stream_socketINS2_2ip3tcpENS2_21stream_socket_serviceIS5_EEEEEEED1Ev @67
    _ZN13FunctionChainIFvvEED1Ev @68
    _ZN13PluginHandler3GetERKSs @69
    _ZN13PluginHandler3HasERKSs @70
    _ZN13PluginHandler4LoadERKSs @71
    _ZN13PluginHandler6UnloadERKSs @72
    _ZN13PluginHandler9GetHandleERKSs @73
    _ZN13PluginHandlerC1Ev @74
    _ZN13PluginHandlerC2Ev @75
    _ZN13PluginHandlerD1Ev @76
    _ZN13PluginHandlerD2Ev @77
    _ZN13PluginLibFailD0Ev @78
    _ZN13PluginLibFailD1Ev @79
    _ZN13TaskScheduler10interuptedEv @80
    _ZN13TaskScheduler13handle_sigintEi @81
    _ZN13TaskScheduler4stopERKi @82
    _ZN13TaskScheduler4stopEv @83
    _ZN13TaskScheduler5clearEv @84
    _ZN13TaskScheduler5startEv @85
    _ZN13TaskScheduler7addTaskEOSt10shared_ptrI5_TaskE @86
    _ZN13TaskScheduler9callLaterIM11serverClassFvvEIKPS1_EEESt10shared_ptrI5_TaskEjOT_DpOT0_ @87
    _ZN13TaskScheduler9setReturnERKi @88
    _ZN13_PluginHandleC1ERKSs @89
    _ZN13_PluginHandleC2ERKSs @90
    _ZN13_PluginHandleD1Ev @91
    _ZN13_PluginHandleD2Ev @92
    _ZN13bad_type_nameC1ERKSsRKi @93
    _ZN13bad_type_nameC2ERKSsRKi @94
    _ZN13bad_type_nameD0Ev @95
    _ZN13bad_type_nameD1Ev @96
    _ZN14Packet_Helpers8recvDataclISsEEvRT_ @97
    _ZN14Packet_Helpers8sendDataclISsEEvRKT_ @98
    _ZN15PluginInterfaceD0Ev @99
    _ZN15PluginInterfaceD1Ev @100
    _ZN15PluginInterfaceD2Ev @101
    _ZN15PluginNotLoadedD0Ev @102
    _ZN15PluginNotLoadedD1Ev @103
    _ZN15binded_functionIRFvvEE4callEv @104
    _ZN15binded_functionIRFvvEED0Ev @105
    _ZN15binded_functionIRFvvEED1Ev @106
    _ZN15binded_functionISt5_BindIFSt7_Mem_fnIM11serverClassFvvEEPS2_EEE4callEv @107
    _ZN15binded_functionISt5_BindIFSt7_Mem_fnIM11serverClassFvvEEPS2_EEED0Ev @108
    _ZN15binded_functionISt5_BindIFSt7_Mem_fnIM11serverClassFvvEEPS2_EEED1Ev @109
    _ZN15boost_exceptionC1ERKN5boost6system10error_codeE @110
    _ZN15boost_exceptionC2ERKN5boost6system10error_codeE @111
    _ZN15boost_exceptionD0Ev @112
    _ZN15boost_exceptionD1Ev @113
    _ZN15boost_exceptionD2Ev @114
    _ZN18PluginNoInstantateD0Ev @115
    _ZN18PluginNoInstantateD1Ev @116
    _ZN19AftershockExceptionD0Ev @117
    _ZN19AftershockExceptionD1Ev @118
    _ZN19AftershockExceptionD2Ev @119
    _ZN20Packet_Tuple_Helpers13CountElementsclISsEEvRKT_ @120
    _ZN20binded_function_baseD0Ev @121
    _ZN20binded_function_baseD1Ev @122
    _ZN20windows_file_codecvtC1Ev @123
    _ZN20windows_file_codecvtD0Ev @124
    _ZN20windows_file_codecvtD1Ev @125
    _ZN26AftershockRuntimeExceptionC1ERKSs @126
    _ZN26AftershockRuntimeExceptionC2ERKSs @127
    _ZN26AftershockRuntimeExceptionD0Ev @128
    _ZN26AftershockRuntimeExceptionD1Ev @129
    _ZN26AftershockRuntimeExceptionD2Ev @130
    _ZN33boost_asio_handler_invoke_helpers6invokeIN5boost4asio6detail7binder1INS1_3_bi6bind_tIvNS1_4_mfi3mf2Iv11serverClassSt10shared_ptrINS2_19basic_stream_socketINS2_2ip3tcpENS2_21stream_socket_serviceISD_EEEEERKNS1_6system10error_codeEEENS5_5list3INS5_5valueIPS9_EENSO_ISH_EEPFNS1_3argILi1EEEvEEEEESJ_EESX_EEvRT_RT0_ @131
    _ZN5_Task13sleepThenCallEv @132
    _ZN5_Task18sleepUntilCallTimeEv @133
    _ZN5_Task4callEv @134
    _ZN5_Task5delayEN5boost10posix_time13time_durationE @135
    _ZN5_Task5delayERKj @136
    _ZN5_Task5resetEN5boost10posix_time13time_durationE @137
    _ZN5_Task5resetEN5boost10posix_time5ptimeE @138
    _ZN5_Task5resetERKj @139
    _ZN5_TaskD1Ev @140
    _ZN5_TaskD2Ev @141
    _ZN5boost10posix_time13time_durationC1ENS_9date_time14special_valuesE @142
    _ZN5boost10posix_time13time_durationC1ERKS1_ @143
    _ZN5boost10posix_time13time_durationC1Eiiix @144
    _ZN5boost10posix_time5ptimeC1ENS_9gregorian4dateENS0_13time_durationE @145
    _ZN5boost10posix_time5ptimeC1Ev @146
    _ZN5boost10posix_timelsIcSt11char_traitsIcEEERSt13basic_ostreamIT_T0_ES8_RKNS0_5ptimeE @147
    _ZN5boost10shared_ptrINS_11filesystem316filesystem_error5m_impEE4swapERS4_ @148
    _ZN5boost10shared_ptrINS_11filesystem316filesystem_error5m_impEE5resetEv @149
    _ZN5boost10shared_ptrINS_11filesystem316filesystem_error5m_impEE5resetIS3_EEvPT_ @150
    _ZN5boost10shared_ptrINS_11filesystem316filesystem_error5m_impEEC1Ev @151
    _ZN5boost10shared_ptrINS_11filesystem316filesystem_error5m_impEEC1IS3_EEPT_ @152
    _ZN5boost10shared_ptrINS_11filesystem316filesystem_error5m_impEED1Ev @153
    _ZN5boost10shared_ptrINS_11filesystem36detail11dir_itr_impEE4swapERS4_ @154
    _ZN5boost10shared_ptrINS_11filesystem36detail11dir_itr_impEE5resetEv @155
    _ZN5boost10shared_ptrINS_11filesystem36detail11dir_itr_impEEC1Ev @156
    _ZN5boost10shared_ptrINS_11filesystem36detail11dir_itr_impEEC1IS3_EEPT_ @157
    _ZN5boost10shared_ptrINS_11filesystem36detail11dir_itr_impEED1Ev @158
    _ZN5boost10shared_ptrINS_6detail20tss_cleanup_functionEE4swapERS3_ @159
    _ZN5boost10shared_ptrINS_6detail20tss_cleanup_functionEEC1ERKS3_ @160
    _ZN5boost10shared_ptrINS_6detail20tss_cleanup_functionEED1Ev @161
    _ZN5boost10shared_ptrINS_6detail20tss_cleanup_functionEEaSERKS3_ @162
    _ZN5boost10shared_ptrINS_7signals6detail16basic_connectionEE4swapERS4_ @163
    _ZN5boost10shared_ptrINS_7signals6detail16basic_connectionEE5resetIS3_EEvPT_ @164
    _ZN5boost10shared_ptrINS_7signals6detail16basic_connectionEEC1ERKS4_ @165
    _ZN5boost10shared_ptrINS_7signals6detail16basic_connectionEEC1IS3_EEPT_ @166
    _ZN5boost10shared_ptrINS_7signals6detail16basic_connectionEED1Ev @167
    _ZN5boost10shared_ptrINS_7signals6detail16signal_base_implEE4swapERS4_ @168
    _ZN5boost10shared_ptrINS_7signals6detail16signal_base_implEE5resetIS3_EEvPT_ @169
    _ZN5boost10shared_ptrINS_7signals6detail16signal_base_implEEC1ERKS4_ @170
    _ZN5boost10shared_ptrINS_7signals6detail16signal_base_implEEC1Ev @171
    _ZN5boost10shared_ptrINS_7signals6detail16signal_base_implEEC1IS3_EEPT_ @172
    _ZN5boost10shared_ptrINS_7signals6detail16signal_base_implEED1Ev @173
    _ZN5boost10shared_ptrIvEC1ERKS1_ @174
    _ZN5boost10shared_ptrIvEC1Ev @175
    _ZN5boost10shared_ptrIvED1Ev @176
    _ZN5boost11filesystem310is_symlinkENS0_11file_statusE @177
    _ZN5boost11filesystem311file_status4typeENS0_9file_typeE @178
    _ZN5boost11filesystem311file_statusC1ENS0_9file_typeE @179
    _ZN5boost11filesystem311file_statusC1Ev @180
    _ZN5boost11filesystem311path_traits7convertEPKcS3_RSbIwSt11char_traitsIwESaIwEERKSt7codecvtIwciE @181
    _ZN5boost11filesystem311path_traits7convertEPKwRSbIwSt11char_traitsIwESaIwEERKSt7codecvtIwciE @182
    _ZN5boost11filesystem311path_traits7convertEPKwS3_RSbIwSt11char_traitsIwESaIwEERKSt7codecvtIwciE @183
    _ZN5boost11filesystem311path_traits7convertEPKwS3_RSsRKSt7codecvtIwciE @184
    _ZN5boost11filesystem311path_traits8dispatchERKNS0_15directory_entryERSbIwSt11char_traitsIwESaIwEERKSt7codecvtIwciE @185
    _ZN5boost11filesystem311path_traits8dispatchISbIwSt11char_traitsIwESaIwEEEEvRKS6_RT_RKSt7codecvtIwciE @186
    _ZN5boost11filesystem311path_traits8dispatchIwSbIwSt11char_traitsIwESaIwEEEEvRKPT_RT0_RKSt7codecvtIwciE @187
    _ZN5boost11filesystem312copy_symlinkERKNS0_4pathES3_RNS_6system10error_codeE @188
    _ZN5boost11filesystem312current_pathEv @189
    _ZN5boost11filesystem312is_directoryENS0_11file_statusE @190
    _ZN5boost11filesystem312is_directoryERKNS0_4pathE @191
    _ZN5boost11filesystem312is_directoryERKNS0_4pathERNS_6system10error_codeE @192
    _ZN5boost11filesystem312status_knownENS0_11file_statusE @193
    _ZN5boost11filesystem314copy_directoryERKNS0_4pathES3_RNS_6system10error_codeE @194
    _ZN5boost11filesystem314symlink_statusERKNS0_4pathERNS_6system10error_codeE @195
    _ZN5boost11filesystem315directory_entry16replace_filenameERKNS0_4pathENS0_11file_statusES5_ @196
    _ZN5boost11filesystem315directory_entry6assignERKNS0_4pathENS0_11file_statusES5_ @197
    _ZN5boost11filesystem315directory_entryC1Ev @198
    _ZN5boost11filesystem315directory_entryD1Ev @199
    _ZN5boost11filesystem315is_regular_fileENS0_11file_statusE @200
    _ZN5boost11filesystem316filesystem_error5m_impC1Ev @201
    _ZN5boost11filesystem316filesystem_error5m_impD1Ev @202
    _ZN5boost11filesystem316filesystem_errorC1ERKSsNS_6system10error_codeE @203
    _ZN5boost11filesystem316filesystem_errorC1ERKSsRKNS0_4pathENS_6system10error_codeE @204
    _ZN5boost11filesystem316filesystem_errorC1ERKSsRKNS0_4pathES6_NS_6system10error_codeE @205
    _ZN5boost11filesystem316filesystem_errorD0Ev @206
    _ZN5boost11filesystem316filesystem_errorD1Ev @207
    _ZN5boost11filesystem318directory_iterator9incrementEv @208
    _ZN5boost11filesystem318directory_iteratorC1ERKNS0_4pathE @209
    _ZN5boost11filesystem318directory_iteratorC1Ev @210
    _ZN5boost11filesystem318directory_iteratorD1Ev @211
    _ZN5boost11filesystem322codecvt_error_categoryEv @212
    _ZN5boost11filesystem34path11m_normalizeEv @213
    _ZN5boost11filesystem34path14make_preferredEv @214
    _ZN5boost11filesystem34path15remove_filenameEv @215
    _ZN5boost11filesystem34path17replace_extensionERKS1_ @216
    _ZN5boost11filesystem34path21wchar_t_codecvt_facetEv @217
    _ZN5boost11filesystem34path25m_path_iterator_decrementERNS1_8iteratorE @218
    _ZN5boost11filesystem34path25m_path_iterator_incrementERNS1_8iteratorE @219
    _ZN5boost11filesystem34path27m_erase_redundant_separatorEj @220
    _ZN5boost11filesystem34path28m_append_separator_if_neededEv @221
    _ZN5boost11filesystem34path5clearEv @222
    _ZN5boost11filesystem34path5imbueERKSt6locale @223
    _ZN5boost11filesystem34path7codecvtEv @224
    _ZN5boost11filesystem34path8iterator9decrementEv @225
    _ZN5boost11filesystem34path8iterator9incrementEv @226
    _ZN5boost11filesystem34path8iteratorC1ERKS2_ @227
    _ZN5boost11filesystem34path8iteratorC1Ev @228
    _ZN5boost11filesystem34path8iteratorD1Ev @229
    _ZN5boost11filesystem34pathC1EPKw @230
    _ZN5boost11filesystem34pathC1ERKS1_ @231
    _ZN5boost11filesystem34pathC1ERKSbIwSt11char_traitsIwESaIwEE @232
    _ZN5boost11filesystem34pathC1Ev @233
    _ZN5boost11filesystem34pathC1IN9__gnu_cxx17__normal_iteratorIPwSt6vectorIwSaIwEEEEEET_SA_ @234
    _ZN5boost11filesystem34pathC1IPKwEET_S5_ @235
    _ZN5boost11filesystem34pathC1IPwEERKT_PNS_9enable_ifINS0_11path_traits11is_pathableINS_5decayIS4_E4typeEEEvE4typeE @236
    _ZN5boost11filesystem34pathD1Ev @237
    _ZN5boost11filesystem34pathaSERKS1_ @238
    _ZN5boost11filesystem34pathaSISbIwSt11char_traitsIwESaIwEEEENS_9enable_ifINS0_11path_traits11is_pathableINS_5decayIT_E4typeEEERS1_E4typeERKSB_ @239
    _ZN5boost11filesystem34pathdVERKS1_ @240
    _ZN5boost11filesystem36detail10equivalentERKNS0_4pathES4_PNS_6system10error_codeE @241
    _ZN5boost11filesystem36detail10remove_allERKNS0_4pathEPNS_6system10error_codeE @242
    _ZN5boost11filesystem36detail11dir_itr_impC1Ev @243
    _ZN5boost11filesystem36detail11dir_itr_impD1Ev @244
    _ZN5boost11filesystem36detail11resize_fileERKNS0_4pathEyPNS_6system10error_codeE @245
    _ZN5boost11filesystem36detail12copy_symlinkERKNS0_4pathES4_PNS_6system10error_codeE @246
    _ZN5boost11filesystem36detail12current_pathEPNS_6system10error_codeE @247
    _ZN5boost11filesystem36detail12current_pathERKNS0_4pathEPNS_6system10error_codeE @248
    _ZN5boost11filesystem36detail12initial_pathEPNS_6system10error_codeE @249
    _ZN5boost11filesystem36detail12read_symlinkERKNS0_4pathEPNS_6system10error_codeE @250
    _ZN5boost11filesystem36detail13dir_itr_closeERPv @251
    _ZN5boost11filesystem36detail14copy_directoryERKNS0_4pathES4_PNS_6system10error_codeE @252
    _ZN5boost11filesystem36detail14create_symlinkERKNS0_4pathES4_PNS_6system10error_codeE @253
    _ZN5boost11filesystem36detail14symlink_statusERKNS0_4pathEPNS_6system10error_codeE @254
    _ZN5boost11filesystem36detail15hard_link_countERKNS0_4pathEPNS_6system10error_codeE @255
    _ZN5boost11filesystem36detail15last_write_timeERKNS0_4pathEPNS_6system10error_codeE @256
    _ZN5boost11filesystem36detail15last_write_timeERKNS0_4pathElPNS_6system10error_codeE @257
    _ZN5boost11filesystem36detail15system_completeERKNS0_4pathEPNS_6system10error_codeE @258
    _ZN5boost11filesystem36detail16create_directoryERKNS0_4pathEPNS_6system10error_codeE @259
    _ZN5boost11filesystem36detail16create_hard_linkERKNS0_4pathES4_PNS_6system10error_codeE @260
    _ZN5boost11filesystem36detail18create_directoriesERKNS0_4pathEPNS_6system10error_codeE @261
    _ZN5boost11filesystem36detail19temp_directory_pathEPNS_6system10error_codeE @262
    _ZN5boost11filesystem36detail24create_directory_symlinkERKNS0_4pathES4_PNS_6system10error_codeE @263
    _ZN5boost11filesystem36detail28directory_iterator_constructERNS0_18directory_iteratorERKNS0_4pathEPNS_6system10error_codeE @264
    _ZN5boost11filesystem36detail28directory_iterator_incrementERNS0_18directory_iteratorEPNS_6system10error_codeE @265
    _ZN5boost11filesystem36detail32possible_large_file_size_supportEv @266
    _ZN5boost11filesystem36detail4copyERKNS0_4pathES4_PNS_6system10error_codeE @267
    _ZN5boost11filesystem36detail5spaceERKNS0_4pathEPNS_6system10error_codeE @268
    _ZN5boost11filesystem36detail6removeERKNS0_4pathEPNS_6system10error_codeE @269
    _ZN5boost11filesystem36detail6renameERKNS0_4pathES4_PNS_6system10error_codeE @270
    _ZN5boost11filesystem36detail6statusERKNS0_4pathEPNS_6system10error_codeE @271
    _ZN5boost11filesystem36detail8is_emptyERKNS0_4pathEPNS_6system10error_codeE @272
    _ZN5boost11filesystem36detail9canonicalERKNS0_4pathES4_PNS_6system10error_codeE @273
    _ZN5boost11filesystem36detail9copy_fileERKNS0_4pathES4_NS0_11copy_option9enum_typeEPNS_6system10error_codeE @274
    _ZN5boost11filesystem36detail9file_sizeERKNS0_4pathEPNS_6system10error_codeE @275
    _ZN5boost11filesystem36existsENS0_11file_statusE @276
    _ZN5boost11filesystem36existsERKNS0_4pathE @277
    _ZN5boost11filesystem36statusERKNS0_4pathERNS_6system10error_codeE @278
    _ZN5boost11filesystem38absoluteERKNS0_4pathES3_ @279
    _ZN5boost11filesystem39copy_fileERKNS0_4pathES3_NS0_11copy_option9enum_typeERNS_6system10error_codeE @280
    _ZN5boost11filesystem3dvERKNS0_4pathES3_ @281
    _ZN5boost11filesystem3eqERKNS0_4pathEPKw @282
    _ZN5boost11filesystem3eqERKNS0_4pathES3_ @283
    _ZN5boost11this_thread18interruptible_waitEPvNS_6detail7timeoutE @284
    _ZN5boost11this_thread18interruption_pointEv @285
    _ZN5boost11this_thread20disable_interruptionC1Ev @286
    _ZN5boost11this_thread20disable_interruptionC2Ev @287
    _ZN5boost11this_thread20disable_interruptionD1Ev @288
    _ZN5boost11this_thread20disable_interruptionD2Ev @289
    _ZN5boost11this_thread20interruption_enabledEv @290
    _ZN5boost11this_thread20restore_interruptionC1ERNS0_20disable_interruptionE @291
    _ZN5boost11this_thread20restore_interruptionC2ERNS0_20disable_interruptionE @292
    _ZN5boost11this_thread20restore_interruptionD1Ev @293
    _ZN5boost11this_thread20restore_interruptionD2Ev @294
    _ZN5boost11this_thread22interruption_requestedEv @295
    _ZN5boost11this_thread5yieldEv @296
    _ZN5boost11this_thread6get_idEv @297
    _ZN5boost12noncopyable_11noncopyableC2Ev @298
    _ZN5boost12noncopyable_11noncopyableD2Ev @299
    _ZN5boost12scoped_arrayIcEC1EPc @300
    _ZN5boost12scoped_arrayIcED1Ev @301
    _ZN5boost12scoped_arrayIwEC1EPw @302
    _ZN5boost12scoped_arrayIwED1Ev @303
    _ZN5boost13function_baseC2Ev @304
    _ZN5boost13implicit_castIPKNS_11filesystem34pathEEET_NS_3mpl8identityIS5_E4typeE @305
    _ZN5boost13implicit_castIPNS_11filesystem315directory_entryEEET_NS_3mpl8identityIS4_E4typeE @306
    _ZN5boost13implicit_castIPNS_7signals6detail20connection_slot_pairEEET_NS_3mpl8identityIS5_E4typeE @307
    _ZN5boost13intrusive_ptrINS_6detail16thread_data_baseEE4swapERS3_ @308
    _ZN5boost13intrusive_ptrINS_6detail16thread_data_baseEEC1EPS2_b @309
    _ZN5boost13intrusive_ptrINS_6detail16thread_data_baseEEC1ERKS3_ @310
    _ZN5boost13intrusive_ptrINS_6detail16thread_data_baseEEC1Ev @311
    _ZN5boost13intrusive_ptrINS_6detail16thread_data_baseEED1Ev @312
    _ZN5boost13intrusive_ptrINS_6detail16thread_data_baseEEaSEPS2_ @313
    _ZN5boost14checked_deleteINS_11filesystem316filesystem_error5m_impEEEvPT_ @314
    _ZN5boost14checked_deleteINS_11filesystem36detail11dir_itr_impEEEvPT_ @315
    _ZN5boost14checked_deleteINS_7signals6detail16basic_connectionEEEvPT_ @316
    _ZN5boost14checked_deleteINS_7signals6detail16signal_base_implEEEvPT_ @317
    _ZN5boost14on_thread_exitEv @318
    _ZN5boost15get_system_timeEv @319
    _ZN5boost15iterator_facadeINS_11filesystem318directory_iteratorENS1_15directory_entryENS_25single_pass_traversal_tagERS3_iE7derivedEv @320
    _ZN5boost15iterator_facadeINS_11filesystem318directory_iteratorENS1_15directory_entryENS_25single_pass_traversal_tagERS3_iEC2Ev @321
    _ZN5boost15iterator_facadeINS_11filesystem318directory_iteratorENS1_15directory_entryENS_25single_pass_traversal_tagERS3_iEppEv @322
    _ZN5boost15iterator_facadeINS_11filesystem34path8iteratorEKS2_NS_27bidirectional_traversal_tagERS4_iE7derivedEv @323
    _ZN5boost15iterator_facadeINS_11filesystem34path8iteratorEKS2_NS_27bidirectional_traversal_tagERS4_iEC2Ev @324
    _ZN5boost15iterator_facadeINS_11filesystem34path8iteratorEKS2_NS_27bidirectional_traversal_tagERS4_iEmmEi @325
    _ZN5boost15iterator_facadeINS_11filesystem34path8iteratorEKS2_NS_27bidirectional_traversal_tagERS4_iEmmEv @326
    _ZN5boost15iterator_facadeINS_11filesystem34path8iteratorEKS2_NS_27bidirectional_traversal_tagERS4_iEppEv @327
    _ZN5boost15iterator_facadeINS_7signals6detail23named_slot_map_iteratorENS2_20connection_slot_pairENS_21forward_traversal_tagERS4_iE7derivedEv @328
    _ZN5boost15iterator_facadeINS_7signals6detail23named_slot_map_iteratorENS2_20connection_slot_pairENS_21forward_traversal_tagERS4_iEC2Ev @329
    _ZN5boost15iterator_facadeINS_7signals6detail23named_slot_map_iteratorENS2_20connection_slot_pairENS_21forward_traversal_tagERS4_iEppEv @330
    _ZN5boost15on_process_exitEv @331
    _ZN5boost15on_thread_enterEv @332
    _ZN5boost15throw_exceptionINS_16bad_lexical_castEEEvRKT_ @333
    _ZN5boost15throw_exceptionINS_17bad_function_callEEEvRKT_ @334
    _ZN5boost15throw_exceptionINS_21thread_resource_errorEEEvRKT_ @335
    _ZN5boost15throw_exceptionINS_6system12system_errorEEEvRKT_ @336
    _ZN5boost15throw_exceptionINS_9gregorian11bad_weekdayEEEvRKT_ @337
    _ZN5boost15throw_exceptionINS_9gregorian15bad_day_of_yearEEEvRKT_ @338
    _ZN5boost15throw_exceptionINS_9gregorian16bad_day_of_monthEEEvRKT_ @339
    _ZN5boost15throw_exceptionINS_9gregorian8bad_yearEEEvRKT_ @340
    _ZN5boost15throw_exceptionINS_9gregorian9bad_monthEEEvRKT_ @341
    _ZN5boost15throw_exceptionISt12out_of_rangeEEvRKT_ @342
    _ZN5boost15throw_exceptionISt13runtime_errorEEvRKT_ @343
    _ZN5boost15throw_exceptionISt9bad_allocEEvRKT_ @344
    _ZN5boost16bad_lexical_castD0Ev @345
    _ZN5boost16bad_lexical_castD1Ev @346
    _ZN5boost16exception_detail10bad_alloc_D0Ev @347
    _ZN5boost16exception_detail10bad_alloc_D1Ev @348
    _ZN5boost16exception_detail10clone_baseC2ERKS1_ @349
    _ZN5boost16exception_detail10clone_baseC2Ev @350
    _ZN5boost16exception_detail10clone_baseD0Ev @351
    _ZN5boost16exception_detail10clone_baseD1Ev @352
    _ZN5boost16exception_detail10clone_baseD2Ev @353
    _ZN5boost16exception_detail10clone_implINS0_10bad_alloc_EED0Ev @354
    _ZN5boost16exception_detail10clone_implINS0_10bad_alloc_EED1Ev @355
    _ZN5boost16exception_detail10clone_implINS0_14bad_exception_EED0Ev @356
    _ZN5boost16exception_detail10clone_implINS0_14bad_exception_EED1Ev @357
    _ZN5boost16exception_detail10clone_implINS0_19error_info_injectorINS_16bad_lexical_castEEEED0Ev @358
    _ZN5boost16exception_detail10clone_implINS0_19error_info_injectorINS_16bad_lexical_castEEEED1Ev @359
    _ZN5boost16exception_detail10clone_implINS0_19error_info_injectorINS_17bad_function_callEEEEC1ERKS4_ @360
    _ZN5boost16exception_detail10clone_implINS0_19error_info_injectorINS_17bad_function_callEEEEC1ERKS5_ @361
    _ZN5boost16exception_detail10clone_implINS0_19error_info_injectorINS_17bad_function_callEEEED0Ev @362
    _ZN5boost16exception_detail10clone_implINS0_19error_info_injectorINS_17bad_function_callEEEED1Ev @363
    _ZN5boost16exception_detail10clone_implINS0_19error_info_injectorINS_21thread_resource_errorEEEEC1ERKS4_ @364
    _ZN5boost16exception_detail10clone_implINS0_19error_info_injectorINS_21thread_resource_errorEEEEC1ERKS5_ @365
    _ZN5boost16exception_detail10clone_implINS0_19error_info_injectorINS_21thread_resource_errorEEEED0Ev @366
    _ZN5boost16exception_detail10clone_implINS0_19error_info_injectorINS_21thread_resource_errorEEEED1Ev @367
    _ZN5boost16exception_detail10clone_implINS0_19error_info_injectorINS_6system12system_errorEEEED0Ev @368
    _ZN5boost16exception_detail10clone_implINS0_19error_info_injectorINS_6system12system_errorEEEED1Ev @369
    _ZN5boost16exception_detail10clone_implINS0_19error_info_injectorINS_9gregorian11bad_weekdayEEEED0Ev @370
    _ZN5boost16exception_detail10clone_implINS0_19error_info_injectorINS_9gregorian11bad_weekdayEEEED1Ev @371
    _ZN5boost16exception_detail10clone_implINS0_19error_info_injectorINS_9gregorian15bad_day_of_yearEEEED0Ev @372
    _ZN5boost16exception_detail10clone_implINS0_19error_info_injectorINS_9gregorian15bad_day_of_yearEEEED1Ev @373
    _ZN5boost16exception_detail10clone_implINS0_19error_info_injectorINS_9gregorian16bad_day_of_monthEEEEC1ERKS5_ @374
    _ZN5boost16exception_detail10clone_implINS0_19error_info_injectorINS_9gregorian16bad_day_of_monthEEEEC1ERKS6_ @375
    _ZN5boost16exception_detail10clone_implINS0_19error_info_injectorINS_9gregorian16bad_day_of_monthEEEED0Ev @376
    _ZN5boost16exception_detail10clone_implINS0_19error_info_injectorINS_9gregorian16bad_day_of_monthEEEED1Ev @377
    _ZN5boost16exception_detail10clone_implINS0_19error_info_injectorINS_9gregorian8bad_yearEEEEC1ERKS5_ @378
    _ZN5boost16exception_detail10clone_implINS0_19error_info_injectorINS_9gregorian8bad_yearEEEEC1ERKS6_ @379
    _ZN5boost16exception_detail10clone_implINS0_19error_info_injectorINS_9gregorian8bad_yearEEEED0Ev @380
    _ZN5boost16exception_detail10clone_implINS0_19error_info_injectorINS_9gregorian8bad_yearEEEED1Ev @381
    _ZN5boost16exception_detail10clone_implINS0_19error_info_injectorINS_9gregorian9bad_monthEEEEC1ERKS5_ @382
    _ZN5boost16exception_detail10clone_implINS0_19error_info_injectorINS_9gregorian9bad_monthEEEEC1ERKS6_ @383
    _ZN5boost16exception_detail10clone_implINS0_19error_info_injectorINS_9gregorian9bad_monthEEEED0Ev @384
    _ZN5boost16exception_detail10clone_implINS0_19error_info_injectorINS_9gregorian9bad_monthEEEED1Ev @385
    _ZN5boost16exception_detail10clone_implINS0_19error_info_injectorISt12out_of_rangeEEED0Ev @386
    _ZN5boost16exception_detail10clone_implINS0_19error_info_injectorISt12out_of_rangeEEED1Ev @387
    _ZN5boost16exception_detail10clone_implINS0_19error_info_injectorISt13runtime_errorEEEC1ERKS4_ @388
    _ZN5boost16exception_detail10clone_implINS0_19error_info_injectorISt13runtime_errorEEEC1ERKS5_ @389
    _ZN5boost16exception_detail10clone_implINS0_19error_info_injectorISt13runtime_errorEEED0Ev @390
    _ZN5boost16exception_detail10clone_implINS0_19error_info_injectorISt13runtime_errorEEED1Ev @391
    _ZN5boost16exception_detail10clone_implINS0_19error_info_injectorISt9bad_allocEEEC1ERKS4_ @392
    _ZN5boost16exception_detail10clone_implINS0_19error_info_injectorISt9bad_allocEEEC1ERKS5_ @393
    _ZN5boost16exception_detail10clone_implINS0_19error_info_injectorISt9bad_allocEEED0Ev @394
    _ZN5boost16exception_detail10clone_implINS0_19error_info_injectorISt9bad_allocEEED1Ev @395
    _ZN5boost16exception_detail12refcount_ptrINS0_20error_info_containerEE5adoptEPS2_ @396
    _ZN5boost16exception_detail12refcount_ptrINS0_20error_info_containerEE7add_refEv @397
    _ZN5boost16exception_detail12refcount_ptrINS0_20error_info_containerEE7releaseEv @398
    _ZN5boost16exception_detail12refcount_ptrINS0_20error_info_containerEEC1ERKS3_ @399
    _ZN5boost16exception_detail12refcount_ptrINS0_20error_info_containerEEC1Ev @400
    _ZN5boost16exception_detail12refcount_ptrINS0_20error_info_containerEED1Ev @401
    _ZN5boost16exception_detail12refcount_ptrINS0_20error_info_containerEEaSERKS3_ @402
    _ZN5boost16exception_detail14bad_exception_D0Ev @403
    _ZN5boost16exception_detail14bad_exception_D1Ev @404
    _ZN5boost16exception_detail19error_info_injectorINS_16bad_lexical_castEEC2ERKS3_ @405
    _ZN5boost16exception_detail19error_info_injectorINS_16bad_lexical_castEED0Ev @406
    _ZN5boost16exception_detail19error_info_injectorINS_16bad_lexical_castEED1Ev @407
    _ZN5boost16exception_detail19error_info_injectorINS_17bad_function_callEEC1ERKS2_ @408
    _ZN5boost16exception_detail19error_info_injectorINS_17bad_function_callEEC2ERKS3_ @409
    _ZN5boost16exception_detail19error_info_injectorINS_17bad_function_callEED0Ev @410
    _ZN5boost16exception_detail19error_info_injectorINS_17bad_function_callEED1Ev @411
    _ZN5boost16exception_detail19error_info_injectorINS_17bad_function_callEED2Ev @412
    _ZN5boost16exception_detail19error_info_injectorINS_21thread_resource_errorEEC1ERKS2_ @413
    _ZN5boost16exception_detail19error_info_injectorINS_21thread_resource_errorEEC2ERKS3_ @414
    _ZN5boost16exception_detail19error_info_injectorINS_21thread_resource_errorEED0Ev @415
    _ZN5boost16exception_detail19error_info_injectorINS_21thread_resource_errorEED1Ev @416
    _ZN5boost16exception_detail19error_info_injectorINS_21thread_resource_errorEED2Ev @417
    _ZN5boost16exception_detail19error_info_injectorINS_6system12system_errorEEC2ERKS4_ @418
    _ZN5boost16exception_detail19error_info_injectorINS_6system12system_errorEED0Ev @419
    _ZN5boost16exception_detail19error_info_injectorINS_6system12system_errorEED1Ev @420
    _ZN5boost16exception_detail19error_info_injectorINS_9gregorian11bad_weekdayEEC2ERKS4_ @421
    _ZN5boost16exception_detail19error_info_injectorINS_9gregorian11bad_weekdayEED0Ev @422
    _ZN5boost16exception_detail19error_info_injectorINS_9gregorian11bad_weekdayEED1Ev @423
    _ZN5boost16exception_detail19error_info_injectorINS_9gregorian15bad_day_of_yearEEC2ERKS4_ @424
    _ZN5boost16exception_detail19error_info_injectorINS_9gregorian15bad_day_of_yearEED0Ev @425
    _ZN5boost16exception_detail19error_info_injectorINS_9gregorian15bad_day_of_yearEED1Ev @426
    _ZN5boost16exception_detail19error_info_injectorINS_9gregorian16bad_day_of_monthEEC1ERKS3_ @427
    _ZN5boost16exception_detail19error_info_injectorINS_9gregorian16bad_day_of_monthEEC2ERKS4_ @428
    _ZN5boost16exception_detail19error_info_injectorINS_9gregorian16bad_day_of_monthEED0Ev @429
    _ZN5boost16exception_detail19error_info_injectorINS_9gregorian16bad_day_of_monthEED1Ev @430
    _ZN5boost16exception_detail19error_info_injectorINS_9gregorian16bad_day_of_monthEED2Ev @431
    _ZN5boost16exception_detail19error_info_injectorINS_9gregorian8bad_yearEEC1ERKS3_ @432
    _ZN5boost16exception_detail19error_info_injectorINS_9gregorian8bad_yearEEC2ERKS4_ @433
    _ZN5boost16exception_detail19error_info_injectorINS_9gregorian8bad_yearEED0Ev @434
    _ZN5boost16exception_detail19error_info_injectorINS_9gregorian8bad_yearEED1Ev @435
    _ZN5boost16exception_detail19error_info_injectorINS_9gregorian8bad_yearEED2Ev @436
    _ZN5boost16exception_detail19error_info_injectorINS_9gregorian9bad_monthEEC1ERKS3_ @437
    _ZN5boost16exception_detail19error_info_injectorINS_9gregorian9bad_monthEEC2ERKS4_ @438
    _ZN5boost16exception_detail19error_info_injectorINS_9gregorian9bad_monthEED0Ev @439
    _ZN5boost16exception_detail19error_info_injectorINS_9gregorian9bad_monthEED1Ev @440
    _ZN5boost16exception_detail19error_info_injectorINS_9gregorian9bad_monthEED2Ev @441
    _ZN5boost16exception_detail19error_info_injectorISt12out_of_rangeEC2ERKS3_ @442
    _ZN5boost16exception_detail19error_info_injectorISt12out_of_rangeED0Ev @443
    _ZN5boost16exception_detail19error_info_injectorISt12out_of_rangeED1Ev @444
    _ZN5boost16exception_detail19error_info_injectorISt13runtime_errorEC1ERKS2_ @445
    _ZN5boost16exception_detail19error_info_injectorISt13runtime_errorEC2ERKS3_ @446
    _ZN5boost16exception_detail19error_info_injectorISt13runtime_errorED0Ev @447
    _ZN5boost16exception_detail19error_info_injectorISt13runtime_errorED1Ev @448
    _ZN5boost16exception_detail19error_info_injectorISt13runtime_errorED2Ev @449
    _ZN5boost16exception_detail19error_info_injectorISt9bad_allocEC1ERKS2_ @450
    _ZN5boost16exception_detail19error_info_injectorISt9bad_allocEC2ERKS3_ @451
    _ZN5boost16exception_detail19error_info_injectorISt9bad_allocED0Ev @452
    _ZN5boost16exception_detail19error_info_injectorISt9bad_allocED1Ev @453
    _ZN5boost16exception_detail19error_info_injectorISt9bad_allocED2Ev @454
    _ZN5boost16exception_detail20copy_boost_exceptionEPNS_9exceptionEPKS1_ @455
    _ZN5boost16exception_detail27get_static_exception_objectINS0_10bad_alloc_EEENS_13exception_ptrEv @456
    _ZN5boost16exception_detail27get_static_exception_objectINS0_14bad_exception_EEENS_13exception_ptrEv @457
    _ZN5boost16exception_detail37exception_ptr_static_exception_objectINS0_10bad_alloc_EE1eE @458 DATA
    _ZN5boost16exception_detail37exception_ptr_static_exception_objectINS0_14bad_exception_EE1eE @459 DATA
    _ZN5boost16on_process_enterEv @460
    _ZN5boost16thread_exceptionC2ERKS0_ @461
    _ZN5boost16thread_exceptionC2Ev @462
    _ZN5boost16thread_exceptionD0Ev @463
    _ZN5boost16thread_exceptionD1Ev @464
    _ZN5boost16thread_exceptionD2Ev @465
    _ZN5boost17bad_function_callC1Ev @466
    _ZN5boost17bad_function_callC2ERKS0_ @467
    _ZN5boost17bad_function_callD0Ev @468
    _ZN5boost17bad_function_callD1Ev @469
    _ZN5boost17bad_function_callD2Ev @470
    _ZN5boost17enable_error_infoINS_17bad_function_callEEENS_16exception_detail29enable_error_info_return_typeIT_E4typeERKS4_ @471
    _ZN5boost17enable_error_infoINS_21thread_resource_errorEEENS_16exception_detail29enable_error_info_return_typeIT_E4typeERKS4_ @472
    _ZN5boost17enable_error_infoINS_9gregorian16bad_day_of_monthEEENS_16exception_detail29enable_error_info_return_typeIT_E4typeERKS5_ @473
    _ZN5boost17enable_error_infoINS_9gregorian8bad_yearEEENS_16exception_detail29enable_error_info_return_typeIT_E4typeERKS5_ @474
    _ZN5boost17enable_error_infoINS_9gregorian9bad_monthEEENS_16exception_detail29enable_error_info_return_typeIT_E4typeERKS5_ @475
    _ZN5boost17enable_error_infoISt13runtime_errorEENS_16exception_detail29enable_error_info_return_typeIT_E4typeERKS4_ @476
    _ZN5boost17enable_error_infoISt9bad_allocEENS_16exception_detail29enable_error_info_return_typeIT_E4typeERKS4_ @477
    _ZN5boost19equality_comparableINS_10posix_time13time_durationES2_NS_6detail10empty_baseIS2_EENS3_7false_tEEC2Ev @478
    _ZN5boost19equality_comparableINS_10posix_time5ptimeES2_NS_6detail10empty_baseIS2_EENS3_7false_tEEC2Ev @479
    _ZN5boost19equality_comparableINS_9gregorian4dateES2_NS_6detail10empty_baseIS2_EENS3_7false_tEEC2Ev @480
    _ZN5boost20checked_array_deleteIcEEvPT_ @481
    _ZN5boost20checked_array_deleteIwEEvPT_ @482
    _ZN5boost20equality_comparable1INS_10posix_time13time_durationENS_6detail10empty_baseIS2_EEEC2Ev @483
    _ZN5boost20equality_comparable1INS_10posix_time5ptimeENS_6detail10empty_baseIS2_EEEC2Ev @484
    _ZN5boost20equality_comparable1INS_7signals10connectionENS_6detail10empty_baseIS2_EEEC2Ev @485
    _ZN5boost20equality_comparable1INS_9gregorian4dateENS_6detail10empty_baseIS2_EEEC2Ev @486
    _ZN5boost20iterator_core_access11dereferenceINS_11filesystem318directory_iteratorEEENT_9referenceERKS4_ @487
    _ZN5boost20iterator_core_access11dereferenceINS_11filesystem34path8iteratorEEENT_9referenceERKS5_ @488
    _ZN5boost20iterator_core_access11dereferenceINS_7signals6detail23named_slot_map_iteratorEEENT_9referenceERKS5_ @489
    _ZN5boost20iterator_core_access5equalINS_11filesystem318directory_iteratorES3_EEbRKT_RKT0_N4mpl_5bool_ILb1EEE @490
    _ZN5boost20iterator_core_access5equalINS_11filesystem34path8iteratorES4_EEbRKT_RKT0_N4mpl_5bool_ILb1EEE @491
    _ZN5boost20iterator_core_access5equalINS_7signals6detail23named_slot_map_iteratorES4_EEbRKT_RKT0_N4mpl_5bool_ILb1EEE @492
    _ZN5boost20iterator_core_access9decrementINS_11filesystem34path8iteratorEEEvRT_ @493
    _ZN5boost20iterator_core_access9incrementINS_11filesystem318directory_iteratorEEEvRT_ @494
    _ZN5boost20iterator_core_access9incrementINS_11filesystem34path8iteratorEEEvRT_ @495
    _ZN5boost20iterator_core_access9incrementINS_7signals6detail23named_slot_map_iteratorEEEvRT_ @496
    _ZN5boost20less_than_comparableINS_10posix_time13time_durationENS_19equality_comparableIS2_S2_NS_6detail10empty_baseIS2_EENS4_7false_tEEES6_NS4_6true_tEEC2Ev @497
    _ZN5boost20less_than_comparableINS_10posix_time5ptimeENS_19equality_comparableIS2_S2_NS_6detail10empty_baseIS2_EENS4_7false_tEEES6_NS4_6true_tEEC2Ev @498
    _ZN5boost20less_than_comparableINS_9gregorian4dateENS_19equality_comparableIS2_S2_NS_6detail10empty_baseIS2_EENS4_7false_tEEES6_NS4_6true_tEEC2Ev @499
    _ZN5boost21less_than_comparable1INS_10posix_time13time_durationENS_19equality_comparableIS2_S2_NS_6detail10empty_baseIS2_EENS4_7false_tEEEEC2Ev @500
    _ZN5boost21less_than_comparable1INS_10posix_time5ptimeENS_19equality_comparableIS2_S2_NS_6detail10empty_baseIS2_EENS4_7false_tEEEEC2Ev @501
    _ZN5boost21less_than_comparable1INS_7signals10connectionENS_6detail10empty_baseIS2_EEEC2Ev @502
    _ZN5boost21less_than_comparable1INS_9gregorian4dateENS_19equality_comparableIS2_S2_NS_6detail10empty_baseIS2_EENS4_7false_tEEEEC2Ev @503
    _ZN5boost21thread_resource_errorC1Ev @504
    _ZN5boost21thread_resource_errorC2ERKS0_ @505
    _ZN5boost21thread_resource_errorD0Ev @506
    _ZN5boost21thread_resource_errorD1Ev @507
    _ZN5boost21thread_resource_errorD2Ev @508
    _ZN5boost23tss_cleanup_implementedEv @509
    _ZN5boost24enable_current_exceptionINS_16exception_detail19error_info_injectorINS_17bad_function_callEEEEENS1_10clone_implIT_EERKS6_ @510
    _ZN5boost24enable_current_exceptionINS_16exception_detail19error_info_injectorINS_21thread_resource_errorEEEEENS1_10clone_implIT_EERKS6_ @511
    _ZN5boost24enable_current_exceptionINS_16exception_detail19error_info_injectorINS_9gregorian16bad_day_of_monthEEEEENS1_10clone_implIT_EERKS7_ @512
    _ZN5boost24enable_current_exceptionINS_16exception_detail19error_info_injectorINS_9gregorian8bad_yearEEEEENS1_10clone_implIT_EERKS7_ @513
    _ZN5boost24enable_current_exceptionINS_16exception_detail19error_info_injectorINS_9gregorian9bad_monthEEEEENS1_10clone_implIT_EERKS7_ @514
    _ZN5boost24enable_current_exceptionINS_16exception_detail19error_info_injectorISt13runtime_errorEEEENS1_10clone_implIT_EERKS6_ @515
    _ZN5boost24enable_current_exceptionINS_16exception_detail19error_info_injectorISt9bad_allocEEEENS1_10clone_implIT_EERKS6_ @516
    _ZN5boost2CV17constrained_valueINS0_23simple_exception_policyItLt1400ELt10000ENS_9gregorian8bad_yearEEEE3maxEv @517
    _ZN5boost2CV17constrained_valueINS0_23simple_exception_policyItLt1400ELt10000ENS_9gregorian8bad_yearEEEE3minEv @518
    _ZN5boost2CV17constrained_valueINS0_23simple_exception_policyItLt1400ELt10000ENS_9gregorian8bad_yearEEEE6assignEt @519
    _ZN5boost2CV17constrained_valueINS0_23simple_exception_policyItLt1400ELt10000ENS_9gregorian8bad_yearEEEEC2Et @520
    _ZN5boost2CV17constrained_valueINS0_23simple_exception_policyItLt1ELt12ENS_9gregorian9bad_monthEEEE3maxEv @521
    _ZN5boost2CV17constrained_valueINS0_23simple_exception_policyItLt1ELt12ENS_9gregorian9bad_monthEEEE3minEv @522
    _ZN5boost2CV17constrained_valueINS0_23simple_exception_policyItLt1ELt12ENS_9gregorian9bad_monthEEEE6assignEt @523
    _ZN5boost2CV17constrained_valueINS0_23simple_exception_policyItLt1ELt12ENS_9gregorian9bad_monthEEEEC2Et @524
    _ZN5boost2CV17constrained_valueINS0_23simple_exception_policyItLt1ELt31ENS_9gregorian16bad_day_of_monthEEEE3maxEv @525
    _ZN5boost2CV17constrained_valueINS0_23simple_exception_policyItLt1ELt31ENS_9gregorian16bad_day_of_monthEEEE3minEv @526
    _ZN5boost2CV17constrained_valueINS0_23simple_exception_policyItLt1ELt31ENS_9gregorian16bad_day_of_monthEEEE6assignEt @527
    _ZN5boost2CV17constrained_valueINS0_23simple_exception_policyItLt1ELt31ENS_9gregorian16bad_day_of_monthEEEEC2Et @528
    _ZN5boost2CV23simple_exception_policyItLt1400ELt10000ENS_9gregorian8bad_yearEE3maxEv @529
    _ZN5boost2CV23simple_exception_policyItLt1400ELt10000ENS_9gregorian8bad_yearEE3minEv @530
    _ZN5boost2CV23simple_exception_policyItLt1400ELt10000ENS_9gregorian8bad_yearEE8on_errorEttNS0_14violation_enumE @531
    _ZN5boost2CV23simple_exception_policyItLt1ELt12ENS_9gregorian9bad_monthEE3maxEv @532
    _ZN5boost2CV23simple_exception_policyItLt1ELt12ENS_9gregorian9bad_monthEE3minEv @533
    _ZN5boost2CV23simple_exception_policyItLt1ELt12ENS_9gregorian9bad_monthEE8on_errorEttNS0_14violation_enumE @534
    _ZN5boost2CV23simple_exception_policyItLt1ELt31ENS_9gregorian16bad_day_of_monthEE3maxEv @535
    _ZN5boost2CV23simple_exception_policyItLt1ELt31ENS_9gregorian16bad_day_of_monthEE3minEv @536
    _ZN5boost2CV23simple_exception_policyItLt1ELt31ENS_9gregorian16bad_day_of_monthEE8on_errorEttNS0_14violation_enumE @537
    _ZN5boost36throw_exception_assert_compatibilityERKSt9exception @538
    _ZN5boost3_bi5list5INS0_5valueIP11serverClassEENS2_ISt10shared_ptrIcEEENS2_IS6_INS_4asio19basic_stream_socketINS9_2ip3tcpENS9_21stream_socket_serviceISC_EEEEEEEPFNS_3argILi1EEEvEPFNSI_ILi2EEEvEEC1ES5_S8_SH_SL_SO_ @539
    _ZN5boost3_bi5list5INS0_5valueIP11serverClassEENS2_ISt10shared_ptrIcEEENS2_IS6_INS_4asio19basic_stream_socketINS9_2ip3tcpENS9_21stream_socket_serviceISC_EEEEEEEPFNS_3argILi1EEEvEPFNSI_ILi2EEEvEED1Ev @540
    _ZN5boost3_bi6bind_tIvNS_4_mfi3mf4Iv11serverClassSt10shared_ptrIcES5_INS_4asio19basic_stream_socketINS7_2ip3tcpENS7_21stream_socket_serviceISA_EEEEERKNS_6system10error_codeEjEENS0_5list5INS0_5valueIPS4_EENSL_IS6_EENSL_ISE_EEPFNS_3argILi1EEEvEPFNSQ_ILi2EEEvEEEEclISG_jEEvRKT_RKT0_ @541
    _ZN5boost3any11placeholderD0Ev @542
    _ZN5boost3any11placeholderD1Ev @543
    _ZN5boost3any6holderI15Combine_ResultsISt4listIbSaIbEEEED0Ev @544
    _ZN5boost3any6holderI15Combine_ResultsISt4listIbSaIbEEEED1Ev @545
    _ZN5boost3any6holderINS_10last_valueIvEEED0Ev @546
    _ZN5boost3any6holderINS_10last_valueIvEEED1Ev @547
    _ZN5boost3anyC1ERKS0_ @548
    _ZN5boost3anyD1Ev @549
    _ZN5boost3argILi1EEC1Ev @550
    _ZN5boost3argILi2EEC1Ev @551
    _ZN5boost3argILi3EEC1Ev @552
    _ZN5boost3argILi4EEC1Ev @553
    _ZN5boost3argILi5EEC1Ev @554
    _ZN5boost3argILi6EEC1Ev @555
    _ZN5boost3argILi7EEC1Ev @556
    _ZN5boost3argILi8EEC1Ev @557
    _ZN5boost3argILi9EEC1Ev @558
    _ZN5boost4asio10io_service3runEv @559
    _ZN5boost4asio10io_service4pollEv @560
    _ZN5boost4asio10io_service7service12fork_serviceENS1_10fork_eventE @561
    _ZN5boost4asio10io_service7serviceD0Ev @562
    _ZN5boost4asio10io_service7serviceD1Ev @563
    _ZN5boost4asio10io_serviceD1Ev @564
    _ZN5boost4asio12basic_socketINS0_2ip3tcpENS0_21stream_socket_serviceIS3_EEED2Ev @565
    _ZN5boost4asio12placeholders17bytes_transferredEv @566
    _ZN5boost4asio12placeholders5errorEv @567
    _ZN5boost4asio15basic_io_objectINS0_23socket_acceptor_serviceINS0_2ip3tcpEEELb1EED2Ev @568
    _ZN5boost4asio21basic_socket_acceptorINS0_2ip3tcpENS0_23socket_acceptor_serviceIS3_EEEC1ERNS0_10io_serviceERKNS2_14basic_endpointIS3_EEb @569
    _ZN5boost4asio21basic_socket_iostreamINS0_2ip3tcpENS0_21stream_socket_serviceIS3_EENS_10posix_time5ptimeENS0_11time_traitsIS7_EENS0_22deadline_timer_serviceIS7_S9_EEEC1IISsPKcEEEDpT_ @570
    _ZN5boost4asio21basic_socket_iostreamINS0_2ip3tcpENS0_21stream_socket_serviceIS3_EENS_10posix_time5ptimeENS0_11time_traitsIS7_EENS0_22deadline_timer_serviceIS7_S9_EEED0Ev @571
    _ZN5boost4asio21basic_socket_iostreamINS0_2ip3tcpENS0_21stream_socket_serviceIS3_EENS_10posix_time5ptimeENS0_11time_traitsIS7_EENS0_22deadline_timer_serviceIS7_S9_EEED1Ev @572
    _ZN5boost4asio21stream_socket_serviceINS0_2ip3tcpEE16shutdown_serviceEv @573
    _ZN5boost4asio21stream_socket_serviceINS0_2ip3tcpEED0Ev @574
    _ZN5boost4asio21stream_socket_serviceINS0_2ip3tcpEED1Ev @575
    _ZN5boost4asio22basic_socket_streambufINS0_2ip3tcpENS0_21stream_socket_serviceIS3_EENS_10posix_time5ptimeENS0_11time_traitsIS7_EENS0_22deadline_timer_serviceIS7_S9_EEE19resolve_and_connectINS2_20basic_resolver_queryIS3_EEEEvRKT_ @576
    _ZN5boost4asio22basic_socket_streambufINS0_2ip3tcpENS0_21stream_socket_serviceIS3_EENS_10posix_time5ptimeENS0_11time_traitsIS7_EENS0_22deadline_timer_serviceIS7_S9_EEE4syncEv @577
    _ZN5boost4asio22basic_socket_streambufINS0_2ip3tcpENS0_21stream_socket_serviceIS3_EENS_10posix_time5ptimeENS0_11time_traitsIS7_EENS0_22deadline_timer_serviceIS7_S9_EEE6setbufEPci @578
    _ZN5boost4asio22basic_socket_streambufINS0_2ip3tcpENS0_21stream_socket_serviceIS3_EENS_10posix_time5ptimeENS0_11time_traitsIS7_EENS0_22deadline_timer_serviceIS7_S9_EEE7connectIISsPKcEEEPSC_DpT_ @579
    _ZN5boost4asio22basic_socket_streambufINS0_2ip3tcpENS0_21stream_socket_serviceIS3_EENS_10posix_time5ptimeENS0_11time_traitsIS7_EENS0_22deadline_timer_serviceIS7_S9_EEE8overflowEi @580
    _ZN5boost4asio22basic_socket_streambufINS0_2ip3tcpENS0_21stream_socket_serviceIS3_EENS_10posix_time5ptimeENS0_11time_traitsIS7_EENS0_22deadline_timer_serviceIS7_S9_EEE9underflowEv @581
    _ZN5boost4asio22basic_socket_streambufINS0_2ip3tcpENS0_21stream_socket_serviceIS3_EENS_10posix_time5ptimeENS0_11time_traitsIS7_EENS0_22deadline_timer_serviceIS7_S9_EEED0Ev @582
    _ZN5boost4asio22basic_socket_streambufINS0_2ip3tcpENS0_21stream_socket_serviceIS3_EENS_10posix_time5ptimeENS0_11time_traitsIS7_EENS0_22deadline_timer_serviceIS7_S9_EEED1Ev @583
    _ZN5boost4asio23socket_acceptor_serviceINS0_2ip3tcpEE16shutdown_serviceEv @584
    _ZN5boost4asio23socket_acceptor_serviceINS0_2ip3tcpEED0Ev @585
    _ZN5boost4asio23socket_acceptor_serviceINS0_2ip3tcpEED1Ev @586
    _ZN5boost4asio2ip16resolver_serviceINS1_3tcpEE12fork_serviceENS0_10io_service10fork_eventE @587
    _ZN5boost4asio2ip16resolver_serviceINS1_3tcpEE16shutdown_serviceEv @588
    _ZN5boost4asio2ip16resolver_serviceINS1_3tcpEED0Ev @589
    _ZN5boost4asio2ip16resolver_serviceINS1_3tcpEED1Ev @590
    _ZN5boost4asio2ip20basic_resolver_entryINS1_3tcpEED1Ev @591
    _ZN5boost4asio2ip23basic_resolver_iteratorINS1_3tcpEE6createEP8addrinfoRKSsS8_ @592
    _ZN5boost4asio2ip23basic_resolver_iteratorINS1_3tcpEE6createERKNS1_14basic_endpointIS3_EERKSsSA_ @593
    _ZN5boost4asio5error6detail13misc_categoryD0Ev @594
    _ZN5boost4asio5error6detail13misc_categoryD1Ev @595
    _ZN5boost4asio6detail10call_stackINS1_14strand_service11strand_implEhE4top_E @596 DATA
    _ZN5boost4asio6detail10call_stackINS1_19win_iocp_io_serviceEhE4top_E @597 DATA
    _ZN5boost4asio6detail10scoped_ptrINS0_10io_service4workEED1Ev @598
    _ZN5boost4asio6detail10scoped_ptrINS0_10io_serviceEED1Ev @599
    _ZN5boost4asio6detail10scoped_ptrINS1_10win_threadEED1Ev @600
    _ZN5boost4asio6detail10socket_ops12gai_aistructEPPP8addrinfoPKS3_PKvi @601
    _ZN5boost4asio6detail10socket_ops21getaddrinfo_emulationEPKcS4_PK8addrinfoPPS5_ @602
    _ZN5boost4asio6detail10socket_ops21getnameinfo_emulationEPK8sockaddrjPcjS6_jiRNS_6system10error_codeE @603
    _ZN5boost4asio6detail10socket_ops22freeaddrinfo_emulationEP8addrinfo @604
    _ZN5boost4asio6detail10socket_ops5closeEjRhbRNS_6system10error_codeE @605
    _ZN5boost4asio6detail10socket_ops8gai_portEP8addrinfoii @606
    _ZN5boost4asio6detail10socket_ops8gai_servEP8addrinfoPKS3_PKc @607
    _ZN5boost4asio6detail10socket_ops9gai_allocIcEEPT_j @608
    _ZN5boost4asio6detail10socket_ops9inet_ntopEiPKvPcjmRNS_6system10error_codeE @609
    _ZN5boost4asio6detail10win_thread12start_threadEPNS2_9func_baseEj @610
    _ZN5boost4asio6detail10win_thread4funcINS1_21resolver_service_base22work_io_service_runnerEE3runEv @611
    _ZN5boost4asio6detail10win_thread4funcINS1_21resolver_service_base22work_io_service_runnerEED0Ev @612
    _ZN5boost4asio6detail10win_thread4funcINS1_21resolver_service_base22work_io_service_runnerEED1Ev @613
    _ZN5boost4asio6detail10win_thread4funcINS1_7binder1IPFvPNS1_14select_reactorEES6_EEE3runEv @614
    _ZN5boost4asio6detail10win_thread4funcINS1_7binder1IPFvPNS1_14select_reactorEES6_EEED0Ev @615
    _ZN5boost4asio6detail10win_thread4funcINS1_7binder1IPFvPNS1_14select_reactorEES6_EEED1Ev @616
    _ZN5boost4asio6detail10win_thread4joinEv @617
    _ZN5boost4asio6detail10win_thread9func_baseD0Ev @618
    _ZN5boost4asio6detail10win_thread9func_baseD1Ev @619
    _ZN5boost4asio6detail11throw_errorERKNS_6system10error_codeEPKc @620
    _ZN5boost4asio6detail11timer_queueINS0_11time_traitsINS_10posix_time5ptimeEEEE12remove_timerERNS7_14per_timer_dataE @621
    _ZN5boost4asio6detail11timer_queueINS0_11time_traitsINS_10posix_time5ptimeEEEE9swap_heapEjj @622
    _ZN5boost4asio6detail12apc_functionEm@4 @623
    _ZN5boost4asio6detail12service_baseINS0_21stream_socket_serviceINS0_2ip3tcpEEEED0Ev @624
    _ZN5boost4asio6detail12service_baseINS0_21stream_socket_serviceINS0_2ip3tcpEEEED1Ev @625
    _ZN5boost4asio6detail12service_baseINS0_23socket_acceptor_serviceINS0_2ip3tcpEEEED0Ev @626
    _ZN5boost4asio6detail12service_baseINS0_23socket_acceptor_serviceINS0_2ip3tcpEEEED1Ev @627
    _ZN5boost4asio6detail12service_baseINS0_2ip16resolver_serviceINS3_3tcpEEEED0Ev @628
    _ZN5boost4asio6detail12service_baseINS0_2ip16resolver_serviceINS3_3tcpEEEED1Ev @629
    _ZN5boost4asio6detail12service_baseINS1_14select_reactorEED0Ev @630
    _ZN5boost4asio6detail12service_baseINS1_14select_reactorEED1Ev @631
    _ZN5boost4asio6detail12service_baseINS1_19win_iocp_io_serviceEED0Ev @632
    _ZN5boost4asio6detail12service_baseINS1_19win_iocp_io_serviceEED1Ev @633
    _ZN5boost4asio6detail12winsock_initILi2ELi0EE5data_E @634 DATA
    _ZN5boost4asio6detail13socket_holderD1Ev @635
    _ZN5boost4asio6detail14do_throw_errorERKNS_6system10error_codeE @636
    _ZN5boost4asio6detail14select_reactor10run_threadEv @637
    _ZN5boost4asio6detail14select_reactor12fork_serviceENS0_10io_service10fork_eventE @638
    _ZN5boost4asio6detail14select_reactor15call_run_threadEPS2_ @639
    _ZN5boost4asio6detail14select_reactor16shutdown_serviceEv @640
    _ZN5boost4asio6detail14select_reactor19cancel_ops_unlockedEjRKNS_6system10error_codeE @641
    _ZN5boost4asio6detail14select_reactor21deregister_descriptorEjRNS2_19per_descriptor_dataEb @642
    _ZN5boost4asio6detail14select_reactorC1ERNS0_10io_serviceE @643
    _ZN5boost4asio6detail14select_reactorD0Ev @644
    _ZN5boost4asio6detail14select_reactorD1Ev @645
    _ZN5boost4asio6detail15win_thread_baseINS1_10win_threadEE18terminate_threads_E @646 DATA
    _ZN5boost4asio6detail16reactor_op_queueIjE10operationsD1Ev @647
    _ZN5boost4asio6detail16reactor_op_queueIjE17enqueue_operationEjPNS1_10reactor_opE @648
    _ZN5boost4asio6detail16reactor_op_queueIjED1Ev @649
    _ZN5boost4asio6detail16resolver_serviceINS0_2ip3tcpEE7resolveERSt10shared_ptrIvERKNS3_20basic_resolver_queryIS4_EERNS_6system10error_codeE @650
    _ZN5boost4asio6detail16service_registry6createINS0_21stream_socket_serviceINS0_2ip3tcpEEEEEPNS0_10io_service7serviceERS8_ @651
    _ZN5boost4asio6detail16service_registry6createINS0_23socket_acceptor_serviceINS0_2ip3tcpEEEEEPNS0_10io_service7serviceERS8_ @652
    _ZN5boost4asio6detail16service_registry6createINS0_2ip16resolver_serviceINS4_3tcpEEEEEPNS0_10io_service7serviceERS8_ @653
    _ZN5boost4asio6detail16service_registry6createINS1_14select_reactorEEEPNS0_10io_service7serviceERS5_ @654
    _ZN5boost4asio6detail16service_registryC1INS1_19win_iocp_io_serviceEjEERNS0_10io_serviceEPT_T0_ @655
    _ZN5boost4asio6detail17winsock_init_base7startupERNS2_4dataEhh @656
    _ZN5boost4asio6detail18completion_handlerINS1_7binder1INS0_22basic_socket_streambufINS0_2ip3tcpENS0_21stream_socket_serviceIS6_EENS_10posix_time5ptimeENS0_11time_traitsISA_EENS0_22deadline_timer_serviceISA_SC_EEE10io_handlerENS_6system10error_codeEEEE11do_completeEPNS1_19win_iocp_io_serviceEPNS1_18win_iocp_operationERKSI_j @657
    _ZN5boost4asio6detail18completion_handlerINS1_7binder1INS0_22basic_socket_streambufINS0_2ip3tcpENS0_21stream_socket_serviceIS6_EENS_10posix_time5ptimeENS0_11time_traitsISA_EENS0_22deadline_timer_serviceISA_SC_EEE10io_handlerENS_6system10error_codeEEEE3ptrD1Ev @658
    _ZN5boost4asio6detail18win_tss_ptr_createEv @659
    _ZN5boost4asio6detail19win_iocp_io_service11auto_handleD1Ev @660
    _ZN5boost4asio6detail19win_iocp_io_service12cancel_timerINS0_11time_traitsINS_10posix_time5ptimeEEEEEjRNS1_11timer_queueIT_EERNSA_14per_timer_dataEj @661
    _ZN5boost4asio6detail19win_iocp_io_service13on_completionEPNS1_18win_iocp_operationERKNS_6system10error_codeEm @662
    _ZN5boost4asio6detail19win_iocp_io_service13on_completionEPNS1_18win_iocp_operationEmm @663
    _ZN5boost4asio6detail19win_iocp_io_service13work_finishedEv @664
    _ZN5boost4asio6detail19win_iocp_io_service16shutdown_serviceEv @665
    _ZN5boost4asio6detail19win_iocp_io_service25post_immediate_completionEPNS1_18win_iocp_operationE @666
    _ZN5boost4asio6detail19win_iocp_io_service4postINS1_7binder1INS0_22basic_socket_streambufINS0_2ip3tcpENS0_21stream_socket_serviceIS7_EENS_10posix_time5ptimeENS0_11time_traitsISB_EENS0_22deadline_timer_serviceISB_SD_EEE10io_handlerENS_6system10error_codeEEEEEvT_ @667
    _ZN5boost4asio6detail19win_iocp_io_service4stopEv @668
    _ZN5boost4asio6detail19win_iocp_io_serviceD0Ev @669
    _ZN5boost4asio6detail19win_iocp_io_serviceD1Ev @670
    _ZN5boost4asio6detail19win_thread_functionEPv@4 @671
    _ZN5boost4asio6detail21resolver_service_base16shutdown_serviceEv @672
    _ZN5boost4asio6detail22deadline_timer_serviceINS0_11time_traitsINS_10posix_time5ptimeEEEE19implementation_typeD1Ev @673
    _ZN5boost4asio6detail23win_iocp_socket_recv_opINS0_17mutable_buffers_1ENS0_22basic_socket_streambufINS0_2ip3tcpENS0_21stream_socket_serviceIS6_EENS_10posix_time5ptimeENS0_11time_traitsISA_EENS0_22deadline_timer_serviceISA_SC_EEE10io_handlerEE11do_completeEPNS1_19win_iocp_io_serviceEPNS1_18win_iocp_operationERKNS_6system10error_codeEj @674
    _ZN5boost4asio6detail23win_iocp_socket_recv_opINS0_17mutable_buffers_1ENS0_22basic_socket_streambufINS0_2ip3tcpENS0_21stream_socket_serviceIS6_EENS_10posix_time5ptimeENS0_11time_traitsISA_EENS0_22deadline_timer_serviceISA_SC_EEE10io_handlerEE3ptrD1Ev @675
    _ZN5boost4asio6detail23win_iocp_socket_recv_opINS0_17mutable_buffers_1ENS_3_bi6bind_tIvNS_4_mfi3mf4Iv11serverClassSt10shared_ptrIcES9_INS0_19basic_stream_socketINS0_2ip3tcpENS0_21stream_socket_serviceISD_EEEEERKNS_6system10error_codeEjEENS4_5list5INS4_5valueIPS8_EENSO_ISA_EENSO_ISH_EEPFNS_3argILi1EEEvEPFNST_ILi2EEEvEEEEEE11do_completeEPNS1_19win_iocp_io_serviceEPNS1_18win_iocp_operationESL_j @676
    _ZN5boost4asio6detail23win_iocp_socket_recv_opINS0_17mutable_buffers_1ENS_3_bi6bind_tIvNS_4_mfi3mf4Iv11serverClassSt10shared_ptrIcES9_INS0_19basic_stream_socketINS0_2ip3tcpENS0_21stream_socket_serviceISD_EEEEERKNS_6system10error_codeEjEENS4_5list5INS4_5valueIPS8_EENSO_ISA_EENSO_ISH_EEPFNS_3argILi1EEEvEPFNST_ILi2EEEvEEEEEE3ptrD1Ev @677
    _ZN5boost4asio6detail23win_iocp_socket_send_opINS0_15const_buffers_1ENS0_22basic_socket_streambufINS0_2ip3tcpENS0_21stream_socket_serviceIS6_EENS_10posix_time5ptimeENS0_11time_traitsISA_EENS0_22deadline_timer_serviceISA_SC_EEE10io_handlerEE11do_completeEPNS1_19win_iocp_io_serviceEPNS1_18win_iocp_operationERKNS_6system10error_codeEj @678
    _ZN5boost4asio6detail23win_iocp_socket_send_opINS0_15const_buffers_1ENS0_22basic_socket_streambufINS0_2ip3tcpENS0_21stream_socket_serviceIS6_EENS_10posix_time5ptimeENS0_11time_traitsISA_EENS0_22deadline_timer_serviceISA_SC_EEE10io_handlerEE3ptrD1Ev @679
    _ZN5boost4asio6detail23win_iocp_socket_send_opINS0_17mutable_buffers_1ENS0_22basic_socket_streambufINS0_2ip3tcpENS0_21stream_socket_serviceIS6_EENS_10posix_time5ptimeENS0_11time_traitsISA_EENS0_22deadline_timer_serviceISA_SC_EEE10io_handlerEE11do_completeEPNS1_19win_iocp_io_serviceEPNS1_18win_iocp_operationERKNS_6system10error_codeEj @680
    _ZN5boost4asio6detail23win_iocp_socket_send_opINS0_17mutable_buffers_1ENS0_22basic_socket_streambufINS0_2ip3tcpENS0_21stream_socket_serviceIS6_EENS_10posix_time5ptimeENS0_11time_traitsISA_EENS0_22deadline_timer_serviceISA_SC_EEE10io_handlerEE3ptrD1Ev @681
    _ZN5boost4asio6detail23win_iocp_socket_serviceINS0_2ip3tcpEE12async_acceptINS0_12basic_socketIS4_NS0_21stream_socket_serviceIS4_EEEENS_3_bi6bind_tIvNS_4_mfi3mf2Iv11serverClassSt10shared_ptrINS0_19basic_stream_socketIS4_S9_EEERKNS_6system10error_codeEEENSB_5list3INSB_5valueIPSF_EENSQ_ISJ_EEPFNS_3argILi1EEEvEEEEEEEvRNS5_19implementation_typeERT_PNS3_14basic_endpointIS4_EET0_ @682
    _ZN5boost4asio6detail25socket_select_interrupter16open_descriptorsEv @683
    _ZN5boost4asio6detail25socket_select_interrupter17close_descriptorsEv @684
    _ZN5boost4asio6detail25socket_select_interrupter9interruptEv @685
    _ZN5boost4asio6detail25win_iocp_socket_accept_opINS0_12basic_socketINS0_2ip3tcpENS0_21stream_socket_serviceIS5_EEEES5_NS_3_bi6bind_tIvNS_4_mfi3mf2Iv11serverClassSt10shared_ptrINS0_19basic_stream_socketIS5_S7_EEERKNS_6system10error_codeEEENS9_5list3INS9_5valueIPSD_EENSO_ISH_EEPFNS_3argILi1EEEvEEEEEE11do_completeEPNS1_19win_iocp_io_serviceEPNS1_18win_iocp_operationESL_j @686
    _ZN5boost4asio6detail25win_iocp_socket_accept_opINS0_12basic_socketINS0_2ip3tcpENS0_21stream_socket_serviceIS5_EEEES5_NS_3_bi6bind_tIvNS_4_mfi3mf2Iv11serverClassSt10shared_ptrINS0_19basic_stream_socketIS5_S7_EEERKNS_6system10error_codeEEENS9_5list3INS9_5valueIPSD_EENSO_ISH_EEPFNS_3argILi1EEEvEEEEEE3ptrD1Ev @687
    _ZN5boost4asio6detail26reactive_socket_connect_opINS0_22basic_socket_streambufINS0_2ip3tcpENS0_21stream_socket_serviceIS5_EENS_10posix_time5ptimeENS0_11time_traitsIS9_EENS0_22deadline_timer_serviceIS9_SB_EEE10io_handlerEE11do_completeEPNS1_19win_iocp_io_serviceEPNS1_18win_iocp_operationERKNS_6system10error_codeEj @688
    _ZN5boost4asio6detail26reactive_socket_connect_opINS0_22basic_socket_streambufINS0_2ip3tcpENS0_21stream_socket_serviceIS5_EENS_10posix_time5ptimeENS0_11time_traitsIS9_EENS0_22deadline_timer_serviceIS9_SB_EEE10io_handlerEE3ptrD1Ev @689
    _ZN5boost4asio6detail28win_iocp_socket_service_base10async_sendINS0_17mutable_buffers_1ENS0_22basic_socket_streambufINS0_2ip3tcpENS0_21stream_socket_serviceIS7_EENS_10posix_time5ptimeENS0_11time_traitsISB_EENS0_22deadline_timer_serviceISB_SD_EEE10io_handlerEEEvRNS2_24base_implementation_typeERKT_iT0_ @690
    _ZN5boost4asio6detail28win_iocp_socket_service_base13async_receiveINS0_17mutable_buffers_1ENS0_22basic_socket_streambufINS0_2ip3tcpENS0_21stream_socket_serviceIS7_EENS_10posix_time5ptimeENS0_11time_traitsISB_EENS0_22deadline_timer_serviceISB_SD_EEE10io_handlerEEEvRNS2_24base_implementation_typeERKT_iT0_ @691
    _ZN5boost4asio6detail28win_iocp_socket_service_base13async_receiveINS0_17mutable_buffers_1ENS_3_bi6bind_tIvNS_4_mfi3mf4Iv11serverClassSt10shared_ptrIcESA_INS0_19basic_stream_socketINS0_2ip3tcpENS0_21stream_socket_serviceISE_EEEEERKNS_6system10error_codeEjEENS5_5list5INS5_5valueIPS9_EENSP_ISB_EENSP_ISI_EEPFNS_3argILi1EEEvEPFNSU_ILi2EEEvEEEEEEEvRNS2_24base_implementation_typeERKT_iT0_ @692
    _ZN5boost4asio6detail28win_iocp_socket_service_base16shutdown_serviceEv @693
    _ZN5boost4asio6detail31reactive_socket_connect_op_base10do_performEPNS1_10reactor_opE @694
    _ZN5boost4asio6detail8hash_mapIjNS1_16reactor_op_queueIjE10operationsEE13values_insertESt14_List_iteratorISt4pairIjS5_EERKS9_ @695
    _ZN5boost4asio6detail8hash_mapIjNS1_16reactor_op_queueIjE10operationsEE5eraseESt14_List_iteratorISt4pairIjS5_EE @696
    _ZN5boost4asio6detail8hash_mapIjNS1_16reactor_op_queueIjE10operationsEE6rehashEj @697
    _ZN5boost4asio6detail8op_queueINS1_18win_iocp_operationEED1Ev @698
    _ZN5boost4bindIv11serverClassSt10shared_ptrIcES2_INS_4asio19basic_stream_socketINS4_2ip3tcpENS4_21stream_socket_serviceIS7_EEEEERKNS_6system10error_codeEjPS1_S3_SB_PFNS_3argILi1EEEvEPFNSH_ILi2EEEvEEENS_3_bi6bind_tIT_NS_4_mfi3mf4ISQ_T0_T1_T2_T3_T4_EENSO_9list_av_5IT5_T6_T7_T8_T9_E4typeEEEMST_FSQ_SU_SV_SW_SX_ES10_S11_S12_S13_S14_ @699
    _ZN5boost5logic7tribool5dummy7nonnullEv @700
    _ZN5boost5mutexD1Ev @701
    _ZN5boost6detail10empty_baseINS_10posix_time13time_durationEEC2Ev @702
    _ZN5boost6detail10empty_baseINS_10posix_time5ptimeEEC2Ev @703
    _ZN5boost6detail10empty_baseINS_7signals10connectionEEC2Ev @704
    _ZN5boost6detail10empty_baseINS_9gregorian4dateEEC2Ev @705
    _ZN5boost6detail11heap_deleteINS0_13tss_data_nodeEEEvPT_ @706
    _ZN5boost6detail11heap_deleteINS0_16thread_data_baseEEEvPT_ @707
    _ZN5boost6detail11heap_deleteINS0_25thread_exit_callback_nodeEEEvPT_ @708
    _ZN5boost6detail11heap_deleteINS0_25thread_exit_function_baseEEEvPT_ @709
    _ZN5boost6detail11thread_dataINS_3_bi6bind_tIvPFVvR10ServerInfoENS2_5list1INS2_5valueISt17reference_wrapperIS5_EEEEEEEE3runEv @710
    _ZN5boost6detail11thread_dataINS_3_bi6bind_tIvPFVvR10ServerInfoENS2_5list1INS2_5valueISt17reference_wrapperIS5_EEEEEEEED0Ev @711
    _ZN5boost6detail11thread_dataINS_3_bi6bind_tIvPFVvR10ServerInfoENS2_5list1INS2_5valueISt17reference_wrapperIS5_EEEEEEEED1Ev @712
    _ZN5boost6detail12get_tss_dataEPKv @713
    _ZN5boost6detail12set_tss_dataEPKvNS_10shared_ptrINS0_20tss_cleanup_functionEEEPvb @714
    _ZN5boost6detail12shared_count4swapERS1_ @715
    _ZN5boost6detail12shared_countC1ERKS1_ @716
    _ZN5boost6detail12shared_countC1Ev @717
    _ZN5boost6detail12shared_countC1INS_11filesystem316filesystem_error5m_impEEEPT_ @718
    _ZN5boost6detail12shared_countC1INS_11filesystem36detail11dir_itr_impEEEPT_ @719
    _ZN5boost6detail12shared_countC1INS_7signals6detail16basic_connectionEEEPT_ @720
    _ZN5boost6detail12shared_countC1INS_7signals6detail16signal_base_implEEEPT_ @721
    _ZN5boost6detail12shared_countD1Ev @722
    _ZN5boost6detail13find_tss_dataEPKv @723
    _ZN5boost6detail13heap_new_implINS0_13tss_data_nodeERPKvRNS_10shared_ptrINS0_20tss_cleanup_functionEEERPvRPS2_EEPT_T0_T1_T2_T3_ @724
    _ZN5boost6detail13heap_new_implINS0_25thread_exit_callback_nodeERPNS0_25thread_exit_function_baseERPS2_EEPT_T0_T1_ @725
    _ZN5boost6detail13int_to_stringIiEEvT_Pc @726
    _ZN5boost6detail13int_to_stringImEEvT_Pc @727
    _ZN5boost6detail13tss_data_nodeC1EPKvNS_10shared_ptrINS0_20tss_cleanup_functionEEEPvPS1_ @728
    _ZN5boost6detail13tss_data_nodeD1Ev @729
    _ZN5boost6detail15name_once_mutexEPcPv @730
    _ZN5boost6detail15open_once_eventEPcPv @731
    _ZN5boost6detail15sp_counted_base12add_ref_copyEv @732
    _ZN5boost6detail15sp_counted_base12weak_releaseEv @733
    _ZN5boost6detail15sp_counted_base7destroyEv @734
    _ZN5boost6detail15sp_counted_base7releaseEv @735
    _ZN5boost6detail15sp_counted_baseC2Ev @736
    _ZN5boost6detail15sp_counted_baseD0Ev @737
    _ZN5boost6detail15sp_counted_baseD1Ev @738
    _ZN5boost6detail15sp_counted_baseD2Ev @739
    _ZN5boost6detail16atomic_incrementEPi @740
    _ZN5boost6detail16stl_buf_unlockerISt15basic_stringbufIcSt11char_traitsIcESaIcEEcED0Ev @741
    _ZN5boost6detail16stl_buf_unlockerISt15basic_stringbufIcSt11char_traitsIcESaIcEEcED1Ev @742
    _ZN5boost6detail16thread_data_base9interruptEv @743
    _ZN5boost6detail16thread_data_baseC2Ev @744
    _ZN5boost6detail16thread_data_baseD0Ev @745
    _ZN5boost6detail16thread_data_baseD1Ev @746
    _ZN5boost6detail16thread_data_baseD2Ev @747
    _ZN5boost6detail17basic_timed_mutex4lockEv @748
    _ZN5boost6detail17create_once_eventEPcPv @749
    _ZN5boost6detail17sp_counted_impl_pINS_11filesystem316filesystem_error5m_impEE11get_deleterERKSt9type_info @750
    _ZN5boost6detail17sp_counted_impl_pINS_11filesystem316filesystem_error5m_impEE7disposeEv @751
    _ZN5boost6detail17sp_counted_impl_pINS_11filesystem316filesystem_error5m_impEEC1EPS4_ @752
    _ZN5boost6detail17sp_counted_impl_pINS_11filesystem316filesystem_error5m_impEED0Ev @753
    _ZN5boost6detail17sp_counted_impl_pINS_11filesystem316filesystem_error5m_impEED1Ev @754
    _ZN5boost6detail17sp_counted_impl_pINS_11filesystem36detail11dir_itr_impEE11get_deleterERKSt9type_info @755
    _ZN5boost6detail17sp_counted_impl_pINS_11filesystem36detail11dir_itr_impEE7disposeEv @756
    _ZN5boost6detail17sp_counted_impl_pINS_11filesystem36detail11dir_itr_impEEC1EPS4_ @757
    _ZN5boost6detail17sp_counted_impl_pINS_11filesystem36detail11dir_itr_impEED0Ev @758
    _ZN5boost6detail17sp_counted_impl_pINS_11filesystem36detail11dir_itr_impEED1Ev @759
    _ZN5boost6detail17sp_counted_impl_pINS_16exception_detail10clone_implINS2_10bad_alloc_EEEE11get_deleterERKSt9type_info @760
    _ZN5boost6detail17sp_counted_impl_pINS_16exception_detail10clone_implINS2_10bad_alloc_EEEE7disposeEv @761
    _ZN5boost6detail17sp_counted_impl_pINS_16exception_detail10clone_implINS2_10bad_alloc_EEEED0Ev @762
    _ZN5boost6detail17sp_counted_impl_pINS_16exception_detail10clone_implINS2_10bad_alloc_EEEED1Ev @763
    _ZN5boost6detail17sp_counted_impl_pINS_16exception_detail10clone_implINS2_14bad_exception_EEEE11get_deleterERKSt9type_info @764
    _ZN5boost6detail17sp_counted_impl_pINS_16exception_detail10clone_implINS2_14bad_exception_EEEE7disposeEv @765
    _ZN5boost6detail17sp_counted_impl_pINS_16exception_detail10clone_implINS2_14bad_exception_EEEED0Ev @766
    _ZN5boost6detail17sp_counted_impl_pINS_16exception_detail10clone_implINS2_14bad_exception_EEEED1Ev @767
    _ZN5boost6detail17sp_counted_impl_pINS_7signals6detail16basic_connectionEE11get_deleterERKSt9type_info @768
    _ZN5boost6detail17sp_counted_impl_pINS_7signals6detail16basic_connectionEE7disposeEv @769
    _ZN5boost6detail17sp_counted_impl_pINS_7signals6detail16basic_connectionEEC1EPS4_ @770
    _ZN5boost6detail17sp_counted_impl_pINS_7signals6detail16basic_connectionEED0Ev @771
    _ZN5boost6detail17sp_counted_impl_pINS_7signals6detail16basic_connectionEED1Ev @772
    _ZN5boost6detail17sp_counted_impl_pINS_7signals6detail16signal_base_implEE11get_deleterERKSt9type_info @773
    _ZN5boost6detail17sp_counted_impl_pINS_7signals6detail16signal_base_implEE7disposeEv @774
    _ZN5boost6detail17sp_counted_impl_pINS_7signals6detail16signal_base_implEEC1EPS4_ @775
    _ZN5boost6detail17sp_counted_impl_pINS_7signals6detail16signal_base_implEED0Ev @776
    _ZN5boost6detail17sp_counted_impl_pINS_7signals6detail16signal_base_implEED1Ev @777
    _ZN5boost6detail18lcast_put_unsignedISt11char_traitsIcEjcEEPT1_T0_S5_ @778
    _ZN5boost6detail18lcast_put_unsignedISt11char_traitsIcEmcEEPT1_T0_S5_ @779
    _ZN5boost6detail18lcast_put_unsignedISt11char_traitsIcEtcEEPT1_T0_S5_ @780
    _ZN5boost6detail20free_raw_heap_memoryEPv @781
    _ZN5boost6detail20lexical_cast_do_castISsNS_6system10error_codeEE17lexical_cast_implERKS3_ @782
    _ZN5boost6detail20lexical_cast_do_castISsPNS_4asio19basic_stream_socketINS2_2ip3tcpENS2_21stream_socket_serviceIS5_EEEEE17lexical_cast_implERKS9_ @783
    _ZN5boost6detail21intrusive_ptr_add_refEPNS0_16thread_data_baseE @784
    _ZN5boost6detail21intrusive_ptr_releaseEPNS0_16thread_data_baseE @785
    _ZN5boost6detail21operator_arrow_resultINS_11filesystem315directory_entryERS3_PS3_E4makeES4_ @786
    _ZN5boost6detail21operator_arrow_resultINS_11filesystem34pathERKS3_PS4_E4makeES5_ @787
    _ZN5boost6detail21operator_arrow_resultINS_7signals6detail20connection_slot_pairERS4_PS4_E4makeES5_ @788
    _ZN5boost6detail22get_milliseconds_untilERKNS_10posix_time5ptimeE @789
    _ZN5boost6detail23atomic_exchange_and_addEPii @790
    _ZN5boost6detail24add_thread_exit_functionEPNS0_25thread_exit_function_baseE @791
    _ZN5boost6detail24allocate_raw_heap_memoryEj @792
    _ZN5boost6detail24interlocked_read_acquireEPVl @793
    _ZN5boost6detail25thread_exit_callback_nodeC1EPNS0_25thread_exit_function_baseEPS1_ @794
    _ZN5boost6detail25thread_exit_callback_nodeD1Ev @795
    _ZN5boost6detail26sp_enable_shared_from_thisEz @796
    _ZN5boost6detail5win3214handle_manager7cleanupEv @797
    _ZN5boost6detail5win3214handle_managerC1EPv @798
    _ZN5boost6detail5win3214handle_managerC1Ev @799
    _ZN5boost6detail5win3214handle_managerD1Ev @800
    _ZN5boost6detail5win3214handle_manageraSEPv @801
    _ZN5boost6detail5win3222create_anonymous_eventENS1_10event_typeENS1_19initial_event_stateE @802
    _ZN5boost6detail7timeout14remaining_timeC1Ey @803
    _ZN5boost6detail7timeout8sentinelEv @804
    _ZN5boost6detail7timeoutC1ENS1_13sentinel_typeE @805
    _ZN5boost6detail7timeoutC1Ey @806
    _ZN5boost6detail8function15functor_managerINS_7signals6detail20group_bridge_compareISt4lessIiEiEEE6manageERKNS1_15function_bufferERSA_NS1_30functor_manager_operation_typeE @807
    _ZN5boost6detail8function16has_empty_targetEz @808
    _ZN5boost6detail8function21function_obj_invoker2INS_7signals6detail20group_bridge_compareISt4lessIiEiEEbNS4_12stored_groupES9_E6invokeERNS1_15function_bufferES9_S9_ @809
    _ZN5boost6detail8heap_newINS0_11thread_dataINS_3_bi6bind_tIvPFVvR10ServerInfoENS3_5list1INS3_5valueISt17reference_wrapperIS6_EEEEEEEEESG_EEPT_OT0_ @810
    _ZN5boost6detail8heap_newINS0_13tss_data_nodeEPKvNS_10shared_ptrINS0_20tss_cleanup_functionEEEPvPS2_EEPT_RT0_RT1_RT2_RT3_ @811
    _ZN5boost6detail8heap_newINS0_25thread_exit_callback_nodeEPNS0_25thread_exit_function_baseEPS2_EEPT_RT0_RT1_ @812
    _ZN5boost6random23mersenne_twister_engineIjLj32ELj624ELj397ELj31ELj2567483615ELj11ELj4294967295ELj7ELj2636928640ELj15ELj4022730752ELj18ELj1812433253EE5twistEv @813
    _ZN5boost6random6detail20generate_uniform_intINS0_23mersenne_twister_engineIjLj32ELj624ELj397ELj31ELj2567483615ELj11ELj4294967295ELj7ELj2636928640ELj15ELj4022730752ELj18ELj1812433253EEEiEET0_RT_S5_S5_N4mpl_5bool_ILb1EEE @814
    _ZN5boost6system10error_code21unspecified_bool_trueEv @815
    _ZN5boost6system10error_code5clearEv @816
    _ZN5boost6system10error_code6assignEiRKNS0_14error_categoryE @817
    _ZN5boost6system10error_codeC1EiRKNS0_14error_categoryE @818
    _ZN5boost6system10error_codeC1Ev @819
    _ZN5boost6system12system_errorC1EiRKNS0_14error_categoryEPKc @820
    _ZN5boost6system12system_errorC2ENS0_10error_codeERKSs @821
    _ZN5boost6system12system_errorD0Ev @822
    _ZN5boost6system12system_errorD1Ev @823
    _ZN5boost6system12system_errorD2Ev @824
    _ZN5boost6system14error_categoryC2Ev @825
    _ZN5boost6system14error_categoryD0Ev @826
    _ZN5boost6system14error_categoryD1Ev @827
    _ZN5boost6system14error_categoryD2Ev @828
    _ZN5boost6system15error_conditionC1EiRKNS0_14error_categoryE @829
    _ZN5boost6system15system_categoryEv @830
    _ZN5boost6system16generic_categoryEv @831
    _ZN5boost6system4errc20make_error_conditionENS1_6errc_tE @832
    _ZN5boost6system6detail25local_free_on_destructionC1EPv @833
    _ZN5boost6system6detail25local_free_on_destructionD1Ev @834
    _ZN5boost6system6throwsE @835 DATA
    _ZN5boost6systemeqERKNS0_15error_conditionES3_ @836
    _ZN5boost6thread10timed_joinERKNS_10posix_time5ptimeE @837
    _ZN5boost6thread12start_threadEv @838
    _ZN5boost6thread13native_handleEv @839
    _ZN5boost6thread14release_handleEv @840
    _ZN5boost6thread20hardware_concurrencyEv @841
    _ZN5boost6thread2idC1ENS_13intrusive_ptrINS_6detail16thread_data_baseEEE @842
    _ZN5boost6thread4joinEv @843
    _ZN5boost6thread6detachEv @844
    _ZN5boost6thread9interruptEv @845
    _ZN5boost6threadC1ENS_13intrusive_ptrINS_6detail16thread_data_baseEEE @846
    _ZN5boost6threadC1Ev @847
    _ZN5boost6threadC2ENS_13intrusive_ptrINS_6detail16thread_data_baseEEE @848
    _ZN5boost6threadC2Ev @849
    _ZN5boost6threadD1Ev @850
    _ZN5boost6threadD2Ev @851
    _ZN5boost7signal0IvNS_10last_valueIvEEiSt4lessIiENS_8functionIFvvEEEEclEv @852
    _ZN5boost7signal1IvR17onConnectionEventNS_10last_valueIvEEiSt4lessIiENS_8functionIFvS2_EEEEclES2_ @853
    _ZN5boost7signal2IbcSt10shared_ptrINS_4asio19basic_stream_socketINS2_2ip3tcpENS2_21stream_socket_serviceIS5_EEEEE15Combine_ResultsISt4listIbSaIbEEEiSt4lessIiENS_8functionIFbcS9_EEEEclEcS9_ @854
    _ZN5boost7signals10connection15set_controllingEb @855
    _ZN5boost7signals10connection16add_bound_objectERKNS0_6detail12bound_objectE @856
    _ZN5boost7signals10connection4swapERS1_ @857
    _ZN5boost7signals10connection5resetEPNS0_6detail16basic_connectionE @858
    _ZN5boost7signals10connectionC1ERKS1_ @859
    _ZN5boost7signals10connectionC2ERKS1_ @860
    _ZN5boost7signals10connectionD1Ev @861
    _ZN5boost7signals10connectionD2Ev @862
    _ZN5boost7signals10connectionaSERKS1_ @863
    _ZN5boost7signals17scoped_connection4swapERS1_ @864
    _ZN5boost7signals17scoped_connection7releaseEv @865
    _ZN5boost7signals17scoped_connectionC1ERKNS0_10connectionE @866
    _ZN5boost7signals17scoped_connectionC1ERKS1_ @867
    _ZN5boost7signals17scoped_connectionC2ERKNS0_10connectionE @868
    _ZN5boost7signals17scoped_connectionC2ERKS1_ @869
    _ZN5boost7signals17scoped_connectionD1Ev @870
    _ZN5boost7signals17scoped_connectionD2Ev @871
    _ZN5boost7signals17scoped_connectionaSERKNS0_10connectionE @872
    _ZN5boost7signals17scoped_connectionaSERKS1_ @873
    _ZN5boost7signals4swapERNS0_10connectionES2_ @874
    _ZN5boost7signals4swapERNS0_17scoped_connectionES2_ @875
    _ZN5boost7signals6detail11signal_baseC1ERKNS_9function2IbNS1_12stored_groupES4_EERKNS_3anyE @876
    _ZN5boost7signals6detail11signal_baseC2ERKNS_9function2IbNS1_12stored_groupES4_EERKNS_3anyE @877
    _ZN5boost7signals6detail11signal_baseD1Ev @878
    _ZN5boost7signals6detail11signal_baseD2Ev @879
    _ZN5boost7signals6detail12bound_objectD1Ev @880
    _ZN5boost7signals6detail12stored_groupC1ENS2_12storage_kindE @881
    _ZN5boost7signals6detail12stored_groupC1ERKS2_ @882
    _ZN5boost7signals6detail12stored_groupD1Ev @883
    _ZN5boost7signals6detail14named_slot_map10disconnectERKNS1_12stored_groupE @884
    _ZN5boost7signals6detail14named_slot_map25remove_disconnected_slotsEv @885
    _ZN5boost7signals6detail14named_slot_map3endEv @886
    _ZN5boost7signals6detail14named_slot_map5beginEv @887
    _ZN5boost7signals6detail14named_slot_map5clearEv @888
    _ZN5boost7signals6detail14named_slot_map5eraseENS1_23named_slot_map_iteratorE @889
    _ZN5boost7signals6detail14named_slot_map6insertERKNS1_12stored_groupERKNS0_10connectionERKNS_3anyENS0_16connect_positionE @890
    _ZN5boost7signals6detail14named_slot_mapC1ERKNS_9function2IbNS1_12stored_groupES4_EE @891
    _ZN5boost7signals6detail14named_slot_mapC2ERKNS_9function2IbNS1_12stored_groupES4_EE @892
    _ZN5boost7signals6detail14named_slot_mapD1Ev @893
    _ZN5boost7signals6detail16basic_connectionD1Ev @894
    _ZN5boost7signals6detail16signal_base_impl10disconnectERKNS1_12stored_groupE @895
    _ZN5boost7signals6detail16signal_base_impl12connect_slotERKNS_3anyERKNS1_12stored_groupENS_10shared_ptrINS1_9slot_base6data_tEEENS0_16connect_positionE @896
    _ZN5boost7signals6detail16signal_base_impl17slot_disconnectedEPvS3_ @897
    _ZN5boost7signals6detail16signal_base_impl20disconnect_all_slotsEv @898
    _ZN5boost7signals6detail16signal_base_impl24temporarily_set_clearingC1EPS2_ @899
    _ZN5boost7signals6detail16signal_base_impl24temporarily_set_clearingD1Ev @900
    _ZN5boost7signals6detail16signal_base_implC1ERKNS_9function2IbNS1_12stored_groupES4_EERKNS_3anyE @901
    _ZN5boost7signals6detail16signal_base_implC2ERKNS_9function2IbNS1_12stored_groupES4_EERKNS_3anyE @902
    _ZN5boost7signals6detail16signal_base_implD1Ev @903
    _ZN5boost7signals6detail16signal_base_implD2Ev @904
    _ZN5boost7signals6detail17call_notificationC1ERKNS_10shared_ptrINS1_16signal_base_implEEE @905
    _ZN5boost7signals6detail17call_notificationC2ERKNS_10shared_ptrINS1_16signal_base_implEEE @906
    _ZN5boost7signals6detail17call_notificationD1Ev @907
    _ZN5boost7signals6detail17call_notificationD2Ev @908
    _ZN5boost7signals6detail20connection_slot_pairC1ERKNS0_10connectionERKNS_3anyE @909
    _ZN5boost7signals6detail20connection_slot_pairC1ERKS2_ @910
    _ZN5boost7signals6detail20connection_slot_pairD1Ev @911
    _ZN5boost7signals6detail23named_slot_map_iterator15init_next_groupEv @912
    _ZN5boost7signals6detail23named_slot_map_iterator9incrementEv @913
    _ZN5boost7signals6detail23named_slot_map_iteratorC1ERKS2_ @914
    _ZN5boost7signals6detail23named_slot_map_iteratorC1ESt17_Rb_tree_iteratorISt4pairIKNS1_12stored_groupESt4listINS1_20connection_slot_pairESaIS8_EEEESC_ @915
    _ZN5boost7signals6detail23named_slot_map_iteratorC1Ev @916
    _ZN5boost7signals6detail23named_slot_map_iteratoraSERKS2_ @917
    _ZN5boost7signals9trackable19signal_disconnectedEPvS2_ @918
    _ZN5boost7signals9trackableD1Ev @919
    _ZN5boost7signals9trackableD2Ev @920
    _ZN5boost9algorithm11replace_allISsA3_cSsEEvRT_RKT0_RKT1_ @921
    _ZN5boost9algorithm11replace_allISsNS_14iterator_rangeIPKcEES5_EEvRT_RKT0_RKT1_ @922
    _ZN5boost9algorithm6detail21find_format_all_impl2ISsNS1_13first_finderFIN9__gnu_cxx17__normal_iteratorIPKcSsEENS0_8is_equalEEENS1_13empty_formatFIcEENS_14iterator_rangeINS5_IPcSsEEEENS1_15empty_containerIcEEEEvRT_T0_T1_T2_T3_ @923
    _ZN5boost9algorithm6detail21find_format_all_impl2ISsNS1_13first_finderFIPKcNS0_8is_equalEEENS1_13const_formatFINS_14iterator_rangeIN9__gnu_cxx17__normal_iteratorIS5_SsEEEEEENS9_INSB_IPcSsEEEESD_EEvRT_T0_T1_T2_T3_ @924
    _ZN5boost9algorithm6detail21find_format_all_impl2ISsNS1_13first_finderFIPKcNS0_8is_equalEEENS1_13const_formatFINS_14iterator_rangeIS5_EEEENS9_IN9__gnu_cxx17__normal_iteratorIPcSsEEEESA_EEvRT_T0_T1_T2_T3_ @925
    _ZN5boost9algorithm6detail21find_format_all_impl2ISsNS1_13first_finderFIPKcNS0_8is_equalEEENS1_13empty_formatFIcEENS_14iterator_rangeIN9__gnu_cxx17__normal_iteratorIPcSsEEEENS1_15empty_containerIcEEEEvRT_T0_T1_T2_T3_ @926
    _ZN5boost9algorithm9erase_allISsPKcEEvRT_RKT0_ @927
    _ZN5boost9algorithm9erase_allISsSsEEvRT_RKT0_ @928
    _ZN5boost9assertion6detail20assertion_failed_msgEPKcS3_S3_S3_l @929
    _ZN5boost9call_onceIPFvvEEEvRNS_9once_flagET_ @930
    _ZN5boost9date_time10date_facetINS_9gregorian4dateEcSt19ostreambuf_iteratorIcSt11char_traitsIcEEE14set_iso_formatEv @931
    _ZN5boost9date_time10date_facetINS_9gregorian4dateEcSt19ostreambuf_iteratorIcSt11char_traitsIcEEE17long_month_formatE @932 DATA
    _ZN5boost9date_time10date_facetINS_9gregorian4dateEcSt19ostreambuf_iteratorIcSt11char_traitsIcEEE18short_month_formatE @933 DATA
    _ZN5boost9date_time10date_facetINS_9gregorian4dateEcSt19ostreambuf_iteratorIcSt11char_traitsIcEEE19long_weekday_formatE @934 DATA
    _ZN5boost9date_time10date_facetINS_9gregorian4dateEcSt19ostreambuf_iteratorIcSt11char_traitsIcEEE20iso_format_specifierE @935 DATA
    _ZN5boost9date_time10date_facetINS_9gregorian4dateEcSt19ostreambuf_iteratorIcSt11char_traitsIcEEE20short_weekday_formatE @936 DATA
    _ZN5boost9date_time10date_facetINS_9gregorian4dateEcSt19ostreambuf_iteratorIcSt11char_traitsIcEEE23set_iso_extended_formatEv @937
    _ZN5boost9date_time10date_facetINS_9gregorian4dateEcSt19ostreambuf_iteratorIcSt11char_traitsIcEEE29iso_format_extended_specifierE @938 DATA
    _ZN5boost9date_time10date_facetINS_9gregorian4dateEcSt19ostreambuf_iteratorIcSt11char_traitsIcEEED0Ev @939
    _ZN5boost9date_time10date_facetINS_9gregorian4dateEcSt19ostreambuf_iteratorIcSt11char_traitsIcEEED1Ev @940
    _ZN5boost9date_time10date_facetINS_9gregorian4dateEcSt19ostreambuf_iteratorIcSt11char_traitsIcEEED2Ev @941
    _ZN5boost9date_time10time_facetINS_10posix_time5ptimeEcSt19ostreambuf_iteratorIcSt11char_traitsIcEEE14seconds_formatE @942 DATA
    _ZN5boost9date_time10time_facetINS_10posix_time5ptimeEcSt19ostreambuf_iteratorIcSt11char_traitsIcEEE14set_iso_formatEv @943
    _ZN5boost9date_time10time_facetINS_10posix_time5ptimeEcSt19ostreambuf_iteratorIcSt11char_traitsIcEEE15zone_iso_formatE @944 DATA
    _ZN5boost9date_time10time_facetINS_10posix_time5ptimeEcSt19ostreambuf_iteratorIcSt11char_traitsIcEEE16zone_name_formatE @945 DATA
    _ZN5boost9date_time10time_facetINS_10posix_time5ptimeEcSt19ostreambuf_iteratorIcSt11char_traitsIcEEE18zone_abbrev_formatE @946 DATA
    _ZN5boost9date_time10time_facetINS_10posix_time5ptimeEcSt19ostreambuf_iteratorIcSt11char_traitsIcEEE19default_time_formatE @947 DATA
    _ZN5boost9date_time10time_facetINS_10posix_time5ptimeEcSt19ostreambuf_iteratorIcSt11char_traitsIcEEE23set_iso_extended_formatEv @948
    _ZN5boost9date_time10time_facetINS_10posix_time5ptimeEcSt19ostreambuf_iteratorIcSt11char_traitsIcEEE24posix_zone_string_formatE @949 DATA
    _ZN5boost9date_time10time_facetINS_10posix_time5ptimeEcSt19ostreambuf_iteratorIcSt11char_traitsIcEEE24zone_iso_extended_formatE @950 DATA
    _ZN5boost9date_time10time_facetINS_10posix_time5ptimeEcSt19ostreambuf_iteratorIcSt11char_traitsIcEEE25fractional_seconds_formatE @951 DATA
    _ZN5boost9date_time10time_facetINS_10posix_time5ptimeEcSt19ostreambuf_iteratorIcSt11char_traitsIcEEE25iso_time_format_specifierE @952 DATA
    _ZN5boost9date_time10time_facetINS_10posix_time5ptimeEcSt19ostreambuf_iteratorIcSt11char_traitsIcEEE27duration_sign_negative_onlyE @953 DATA
    _ZN5boost9date_time10time_facetINS_10posix_time5ptimeEcSt19ostreambuf_iteratorIcSt11char_traitsIcEEE28default_time_duration_formatE @954 DATA
    _ZN5boost9date_time10time_facetINS_10posix_time5ptimeEcSt19ostreambuf_iteratorIcSt11char_traitsIcEEE28fractional_seconds_as_stringERKNS2_13time_durationEb @955
    _ZN5boost9date_time10time_facetINS_10posix_time5ptimeEcSt19ostreambuf_iteratorIcSt11char_traitsIcEEE2idE @956 DATA
    _ZN5boost9date_time10time_facetINS_10posix_time5ptimeEcSt19ostreambuf_iteratorIcSt11char_traitsIcEEE33fractional_seconds_or_none_formatE @957 DATA
    _ZN5boost9date_time10time_facetINS_10posix_time5ptimeEcSt19ostreambuf_iteratorIcSt11char_traitsIcEEE34iso_time_format_extended_specifierE @958 DATA
    _ZN5boost9date_time10time_facetINS_10posix_time5ptimeEcSt19ostreambuf_iteratorIcSt11char_traitsIcEEE38seconds_with_fractional_seconds_formatE @959 DATA
    _ZN5boost9date_time10time_facetINS_10posix_time5ptimeEcSt19ostreambuf_iteratorIcSt11char_traitsIcEEEC1Ej @960
    _ZN5boost9date_time10time_facetINS_10posix_time5ptimeEcSt19ostreambuf_iteratorIcSt11char_traitsIcEEED0Ev @961
    _ZN5boost9date_time10time_facetINS_10posix_time5ptimeEcSt19ostreambuf_iteratorIcSt11char_traitsIcEEED1Ev @962
    _ZN5boost9date_time11int_adapterIjE10is_neg_infEj @963
    _ZN5boost9date_time11int_adapterIjE10is_pos_infEj @964
    _ZN5boost9date_time11int_adapterIjE12from_specialENS0_14special_valuesE @965
    _ZN5boost9date_time11int_adapterIjE12neg_infinityEv @966
    _ZN5boost9date_time11int_adapterIjE12not_a_numberEv @967
    _ZN5boost9date_time11int_adapterIjE12pos_infinityEv @968
    _ZN5boost9date_time11int_adapterIjE15is_not_a_numberEj @969
    _ZN5boost9date_time11int_adapterIjE3maxEv @970
    _ZN5boost9date_time11int_adapterIjE3minEv @971
    _ZN5boost9date_time11int_adapterIjE6is_infEj @972
    _ZN5boost9date_time11int_adapterIjEC1Ej @973
    _ZN5boost9date_time11int_adapterIxE10is_neg_infEx @974
    _ZN5boost9date_time11int_adapterIxE10is_pos_infEx @975
    _ZN5boost9date_time11int_adapterIxE10to_specialEx @976
    _ZN5boost9date_time11int_adapterIxE12from_specialENS0_14special_valuesE @977
    _ZN5boost9date_time11int_adapterIxE12neg_infinityEv @978
    _ZN5boost9date_time11int_adapterIxE12not_a_numberEv @979
    _ZN5boost9date_time11int_adapterIxE12pos_infinityEv @980
    _ZN5boost9date_time11int_adapterIxE15is_not_a_numberEx @981
    _ZN5boost9date_time11int_adapterIxE3maxEv @982
    _ZN5boost9date_time11int_adapterIxE3minEv @983
    _ZN5boost9date_time11int_adapterIxEC1Ex @984
    _ZN5boost9date_time12time_formatsIcE14seconds_formatE @985 DATA
    _ZN5boost9date_time12time_formatsIcE15zone_iso_formatE @986 DATA
    _ZN5boost9date_time12time_formatsIcE16zone_name_formatE @987 DATA
    _ZN5boost9date_time12time_formatsIcE18zone_abbrev_formatE @988 DATA
    _ZN5boost9date_time12time_formatsIcE19default_time_formatE @989 DATA
    _ZN5boost9date_time12time_formatsIcE24full_24_hour_time_formatE @990 DATA
    _ZN5boost9date_time12time_formatsIcE24posix_zone_string_formatE @991 DATA
    _ZN5boost9date_time12time_formatsIcE24zone_iso_extended_formatE @992 DATA
    _ZN5boost9date_time12time_formatsIcE25fractional_seconds_formatE @993 DATA
    _ZN5boost9date_time12time_formatsIcE25iso_time_format_specifierE @994 DATA
    _ZN5boost9date_time12time_formatsIcE25short_24_hour_time_formatE @995 DATA
    _ZN5boost9date_time12time_formatsIcE27duration_sign_negative_onlyE @996 DATA
    _ZN5boost9date_time12time_formatsIcE28default_time_duration_formatE @997 DATA
    _ZN5boost9date_time12time_formatsIcE33fractional_seconds_or_none_formatE @998 DATA
    _ZN5boost9date_time12time_formatsIcE33full_24_hour_time_expanded_formatE @999 DATA
    _ZN5boost9date_time12time_formatsIcE34iso_time_format_extended_specifierE @1000 DATA
    _ZN5boost9date_time12time_formatsIcE34short_24_hour_time_expanded_formatE @1001 DATA
    _ZN5boost9date_time12time_formatsIcE38seconds_with_fractional_seconds_formatE @1002 DATA
    _ZN5boost9date_time13time_durationINS_10posix_time13time_durationENS0_22time_resolution_traitsINS0_37time_resolution_traits_adapted64_implELNS0_16time_resolutionsE5ELx1000000ELt6EiEEE16ticks_per_secondEv @1003
    _ZN5boost9date_time13time_durationINS_10posix_time13time_durationENS0_22time_resolution_traitsINS0_37time_resolution_traits_adapted64_implELNS0_16time_resolutionsE5ELx1000000ELt6EiEEEC2ENS0_14special_valuesE @1004
    _ZN5boost9date_time13time_durationINS_10posix_time13time_durationENS0_22time_resolution_traitsINS0_37time_resolution_traits_adapted64_implELNS0_16time_resolutionsE5ELx1000000ELt6EiEEEC2ERKS8_ @1005
    _ZN5boost9date_time13time_durationINS_10posix_time13time_durationENS0_22time_resolution_traitsINS0_37time_resolution_traits_adapted64_implELNS0_16time_resolutionsE5ELx1000000ELt6EiEEEC2Eiiix @1006
    _ZN5boost9date_time14absolute_valueIiEET_S2_ @1007
    _ZN5boost9date_time14absolute_valueIxEET_S2_ @1008
    _ZN5boost9date_time14microsec_clockINS_10posix_time5ptimeEE11create_timeEPFP2tmPKlS6_E @1009
    _ZN5boost9date_time14microsec_clockINS_10posix_time5ptimeEE14universal_timeEv @1010
    _ZN5boost9date_time16counted_time_repINS_10posix_time33millisec_posix_time_system_configEE16frac_sec_per_dayEv @1011
    _ZN5boost9date_time16counted_time_repINS_10posix_time33millisec_posix_time_system_configEEC1ERKNS_9gregorian4dateERKNS2_13time_durationE @1012
    _ZN5boost9date_time16period_formatterIcSt19ostreambuf_iteratorIcSt11char_traitsIcEEE24default_period_separatorE @1013 DATA
    _ZN5boost9date_time16period_formatterIcSt19ostreambuf_iteratorIcSt11char_traitsIcEEE30default_period_start_delimeterE @1014 DATA
    _ZN5boost9date_time16period_formatterIcSt19ostreambuf_iteratorIcSt11char_traitsIcEEE39default_period_open_range_end_delimeterE @1015 DATA
    _ZN5boost9date_time16period_formatterIcSt19ostreambuf_iteratorIcSt11char_traitsIcEEE41default_period_closed_range_end_delimeterE @1016 DATA
    _ZN5boost9date_time16period_formatterIcSt19ostreambuf_iteratorIcSt11char_traitsIcEEED1Ev @1017
    _ZN5boost9date_time19counted_time_systemINS0_16counted_time_repINS_10posix_time33millisec_posix_time_system_configEEEE10unused_varINS0_9dst_flagsEEEvRKT_ @1018
    _ZN5boost9date_time19counted_time_systemINS0_16counted_time_repINS_10posix_time33millisec_posix_time_system_configEEEE12get_time_repERKNS_9gregorian4dateERKNS3_13time_durationENS0_9dst_flagsE @1019
    _ZN5boost9date_time19counted_time_systemINS0_16counted_time_repINS_10posix_time33millisec_posix_time_system_configEEEE14subtract_timesERKS5_S8_ @1020
    _ZN5boost9date_time19counted_time_systemINS0_16counted_time_repINS_10posix_time33millisec_posix_time_system_configEEEE15get_time_of_dayERKS5_ @1021
    _ZN5boost9date_time19counted_time_systemINS0_16counted_time_repINS_10posix_time33millisec_posix_time_system_configEEEE7is_lessERKS5_S8_ @1022
    _ZN5boost9date_time19counted_time_systemINS0_16counted_time_repINS_10posix_time33millisec_posix_time_system_configEEEE8get_dateERKS5_ @1023
    _ZN5boost9date_time19year_month_day_baseINS_9gregorian9greg_yearENS2_10greg_monthENS2_8greg_dayEEC1ES3_S4_S5_ @1024
    _ZN5boost9date_time22time_resolution_traitsINS0_37time_resolution_traits_adapted64_implELNS0_16time_resolutionsE5ELx1000000ELt6EiE10is_adaptedEv @1025
    _ZN5boost9date_time22time_resolution_traitsINS0_37time_resolution_traits_adapted64_implELNS0_16time_resolutionsE5ELx1000000ELt6EiE10res_adjustEv @1026
    _ZN5boost9date_time22time_resolution_traitsINS0_37time_resolution_traits_adapted64_implELNS0_16time_resolutionsE5ELx1000000ELt6EiE13to_tick_countEiiix @1027
    _ZN5boost9date_time22time_resolution_traitsINS0_37time_resolution_traits_adapted64_implELNS0_16time_resolutionsE5ELx1000000ELt6EiE9as_numberENS0_11int_adapterIxEE @1028
    _ZN5boost9date_time23gregorian_calendar_baseINS0_19year_month_day_baseINS_9gregorian9greg_yearENS3_10greg_monthENS3_8greg_dayEEEjE10day_numberERKS7_ @1029
    _ZN5boost9date_time23gregorian_calendar_baseINS0_19year_month_day_baseINS_9gregorian9greg_yearENS3_10greg_monthENS3_8greg_dayEEEjE12is_leap_yearES4_ @1030
    _ZN5boost9date_time23gregorian_calendar_baseINS0_19year_month_day_baseINS_9gregorian9greg_yearENS3_10greg_monthENS3_8greg_dayEEEjE15from_day_numberEj @1031
    _ZN5boost9date_time23gregorian_calendar_baseINS0_19year_month_day_baseINS_9gregorian9greg_yearENS3_10greg_monthENS3_8greg_dayEEEjE16end_of_month_dayES4_S5_ @1032
    _ZN5boost9date_time24date_generator_formatterINS_9gregorian4dateEcSt19ostreambuf_iteratorIcSt11char_traitsIcEEE11last_stringE @1033 DATA
    _ZN5boost9date_time24date_generator_formatterINS_9gregorian4dateEcSt19ostreambuf_iteratorIcSt11char_traitsIcEEE12after_stringE @1034 DATA
    _ZN5boost9date_time24date_generator_formatterINS_9gregorian4dateEcSt19ostreambuf_iteratorIcSt11char_traitsIcEEE12fifth_stringE @1035 DATA
    _ZN5boost9date_time24date_generator_formatterINS_9gregorian4dateEcSt19ostreambuf_iteratorIcSt11char_traitsIcEEE12first_stringE @1036 DATA
    _ZN5boost9date_time24date_generator_formatterINS_9gregorian4dateEcSt19ostreambuf_iteratorIcSt11char_traitsIcEEE12third_stringE @1037 DATA
    _ZN5boost9date_time24date_generator_formatterINS_9gregorian4dateEcSt19ostreambuf_iteratorIcSt11char_traitsIcEEE13before_stringE @1038 DATA
    _ZN5boost9date_time24date_generator_formatterINS_9gregorian4dateEcSt19ostreambuf_iteratorIcSt11char_traitsIcEEE13fourth_stringE @1039 DATA
    _ZN5boost9date_time24date_generator_formatterINS_9gregorian4dateEcSt19ostreambuf_iteratorIcSt11char_traitsIcEEE13second_stringE @1040 DATA
    _ZN5boost9date_time24date_generator_formatterINS_9gregorian4dateEcSt19ostreambuf_iteratorIcSt11char_traitsIcEEE9of_stringE @1041 DATA
    _ZN5boost9date_time24date_generator_formatterINS_9gregorian4dateEcSt19ostreambuf_iteratorIcSt11char_traitsIcEEEC1Ev @1042
    _ZN5boost9date_time24special_values_formatterIcSt19ostreambuf_iteratorIcSt11char_traitsIcEEE27default_special_value_namesE @1043 DATA
    _ZN5boost9date_time37time_resolution_traits_adapted64_impl10is_adaptedEv @1044
    _ZN5boost9date_time37time_resolution_traits_adapted64_impl9as_numberENS0_11int_adapterIxEE @1045
    _ZN5boost9date_time4dateINS_9gregorian4dateENS2_18gregorian_calendarENS2_13date_durationEEC2ENS0_11int_adapterIjEE @1046
    _ZN5boost9date_time4dateINS_9gregorian4dateENS2_18gregorian_calendarENS2_13date_durationEEC2ENS2_9greg_yearENS2_10greg_monthENS2_8greg_dayE @1047
    _ZN5boost9date_time4dateINS_9gregorian4dateENS2_18gregorian_calendarENS2_13date_durationEEC2ERKNS0_19year_month_day_baseINS2_9greg_yearENS2_10greg_monthENS2_8greg_dayEEE @1048
    _ZN5boost9date_time6c_time6gmtimeEPKlP2tm @1049
    _ZN5boost9date_time6c_time9localtimeEPKlP2tm @1050
    _ZN5boost9date_time9base_timeINS_10posix_time5ptimeENS0_19counted_time_systemINS0_16counted_time_repINS2_33millisec_posix_time_system_configEEEEEEC2ERKNS_9gregorian4dateERKNS2_13time_durationENS0_9dst_flagsE @1051
    _ZN5boost9exceptionC2ERKS0_ @1052
    _ZN5boost9exceptionC2Ev @1053
    _ZN5boost9exceptionD2Ev @1054
    _ZN5boost9function2IbNS_7signals6detail12stored_groupES3_E13assign_to_ownERKS4_ @1055
    _ZN5boost9function2IbNS_7signals6detail12stored_groupES3_E5clearEv @1056
    _ZN5boost9function2IbNS_7signals6detail12stored_groupES3_EC1ERKS4_ @1057
    _ZN5boost9function2IbNS_7signals6detail12stored_groupES3_ED1Ev @1058
    _ZN5boost9gregorian10greg_monthC1Et @1059
    _ZN5boost9gregorian11bad_weekdayD0Ev @1060
    _ZN5boost9gregorian11bad_weekdayD1Ev @1061
    _ZN5boost9gregorian15bad_day_of_yearD0Ev @1062
    _ZN5boost9gregorian15bad_day_of_yearD1Ev @1063
    _ZN5boost9gregorian16bad_day_of_monthC1ERKSs @1064
    _ZN5boost9gregorian16bad_day_of_monthC1Ev @1065
    _ZN5boost9gregorian16bad_day_of_monthC2ERKS1_ @1066
    _ZN5boost9gregorian16bad_day_of_monthD0Ev @1067
    _ZN5boost9gregorian16bad_day_of_monthD1Ev @1068
    _ZN5boost9gregorian16bad_day_of_monthD2Ev @1069
    _ZN5boost9gregorian4dateC1ENS0_9greg_yearENS0_10greg_monthENS0_8greg_dayE @1070
    _ZN5boost9gregorian4dateC1ENS_9date_time14special_valuesE @1071
    _ZN5boost9gregorian4dateC1ERKNS_9date_time19year_month_day_baseINS0_9greg_yearENS0_10greg_monthENS0_8greg_dayEEE @1072
    _ZN5boost9gregorian5to_tmERKNS0_4dateE @1073
    _ZN5boost9gregorian8bad_yearC1Ev @1074
    _ZN5boost9gregorian8bad_yearC2ERKS1_ @1075
    _ZN5boost9gregorian8bad_yearD0Ev @1076
    _ZN5boost9gregorian8bad_yearD1Ev @1077
    _ZN5boost9gregorian8bad_yearD2Ev @1078
    _ZN5boost9gregorian8greg_dayC1Et @1079
    _ZN5boost9gregorian9bad_monthC1Ev @1080
    _ZN5boost9gregorian9bad_monthC2ERKS1_ @1081
    _ZN5boost9gregorian9bad_monthD0Ev @1082
    _ZN5boost9gregorian9bad_monthD1Ev @1083
    _ZN5boost9gregorian9bad_monthD2Ev @1084
    _ZN5boost9gregorian9greg_yearC1Et @1085
    _ZN5boosteqINS_11filesystem318directory_iteratorENS1_15directory_entryENS_25single_pass_traversal_tagERS3_iS2_S3_S4_S5_iEENS_6detail23enable_if_interoperableIT_T4_NS_3mpl6apply2INS6_12always_bool2ES8_S9_E4typeEE4typeERKNS_15iterator_facadeIS8_T0_T1_T2_T3_EERKNSH_IS9_T5_T6_T7_T8_EE @1086
    _ZN5boosteqINS_11filesystem34path8iteratorEKS2_NS_27bidirectional_traversal_tagERS4_iS3_S4_S5_S6_iEENS_6detail23enable_if_interoperableIT_T4_NS_3mpl6apply2INS7_12always_bool2ES9_SA_E4typeEE4typeERKNS_15iterator_facadeIS9_T0_T1_T2_T3_EERKNSI_ISA_T5_T6_T7_T8_EE @1087
    _ZN5boosteqINS_11filesystem36detail11dir_itr_impES3_EEbRKNS_10shared_ptrIT_EERKNS4_IT0_EE @1088
    _ZN5boostleERKNS_10posix_time5ptimeES3_ @1089
    _ZN5boostneINS_11filesystem318directory_iteratorENS1_15directory_entryENS_25single_pass_traversal_tagERS3_iS2_S3_S4_S5_iEENS_6detail23enable_if_interoperableIT_T4_NS_3mpl6apply2INS6_12always_bool2ES8_S9_E4typeEE4typeERKNS_15iterator_facadeIS8_T0_T1_T2_T3_EERKNSH_IS9_T5_T6_T7_T8_EE @1090
    _ZN5boostneINS_11filesystem34path8iteratorEKS2_NS_27bidirectional_traversal_tagERS4_iS3_S4_S5_S6_iEENS_6detail23enable_if_interoperableIT_T4_NS_3mpl6apply2INS7_12always_bool2ES9_SA_E4typeEE4typeERKNS_15iterator_facadeIS9_T0_T1_T2_T3_EERKNSI_ISA_T5_T6_T7_T8_EE @1091
    _ZN5boostneINS_7signals6detail23named_slot_map_iteratorENS2_20connection_slot_pairENS_21forward_traversal_tagERS4_iS3_S4_S5_S6_iEENS_6detail23enable_if_interoperableIT_T4_NS_3mpl6apply2INS7_12always_bool2ES9_SA_E4typeEE4typeERKNS_15iterator_facadeIS9_T0_T1_T2_T3_EERKNSI_ISA_T5_T6_T7_T8_EE @1092
    _ZN6format6player10singleLineESsSs @1093
    _ZN6format6player9multiLineESsSs @1094
    _ZN6format9multiLineESs @1095
    _ZN9ByteOrder4copyIiEET_RKS1_ @1096
    _ZN9ByteOrder4copyIsEET_RKS1_ @1097
    _ZN9ByteOrder4copyIxEET_RKS1_ @1098
    _ZN9ByteOrder4swapIiEERT_S2_ @1099
    _ZN9ByteOrder4swapIsEERT_S2_ @1100
    _ZN9ByteOrder4swapIxEERT_S2_ @1101
    _ZN9__gnu_cxx13new_allocatorIN5boost7signals10connectionEE7destroyEPS3_ @1102
    _ZN9__gnu_cxx13new_allocatorIN5boost7signals10connectionEE9constructEPS3_RKS3_ @1103
    _ZN9__gnu_cxx13new_allocatorIN5boost7signals10connectionEEC2Ev @1104
    _ZN9__gnu_cxx13new_allocatorIN5boost7signals10connectionEED2Ev @1105
    _ZN9__gnu_cxx13new_allocatorIN5boost7signals6detail12bound_objectEE7destroyEPS4_ @1106
    _ZN9__gnu_cxx13new_allocatorIN5boost7signals6detail12bound_objectEE9constructEPS4_RKS4_ @1107
    _ZN9__gnu_cxx13new_allocatorIN5boost7signals6detail12bound_objectEEC2Ev @1108
    _ZN9__gnu_cxx13new_allocatorIN5boost7signals6detail12bound_objectEED2Ev @1109
    _ZN9__gnu_cxx13new_allocatorIN5boost7signals6detail20connection_slot_pairEE7destroyEPS4_ @1110
    _ZN9__gnu_cxx13new_allocatorIN5boost7signals6detail20connection_slot_pairEE9constructEPS4_RKS4_ @1111
    _ZN9__gnu_cxx13new_allocatorIN5boost7signals6detail20connection_slot_pairEEC2Ev @1112
    _ZN9__gnu_cxx13new_allocatorIN5boost7signals6detail20connection_slot_pairEED2Ev @1113
    _ZN9__gnu_cxx13new_allocatorISt10_List_nodeIN5boost7signals10connectionEEE10deallocateEPS5_j @1114
    _ZN9__gnu_cxx13new_allocatorISt10_List_nodeIN5boost7signals10connectionEEE8allocateEjPKv @1115
    _ZN9__gnu_cxx13new_allocatorISt10_List_nodeIN5boost7signals10connectionEEEC2ERKS6_ @1116
    _ZN9__gnu_cxx13new_allocatorISt10_List_nodeIN5boost7signals10connectionEEEC2Ev @1117
    _ZN9__gnu_cxx13new_allocatorISt10_List_nodeIN5boost7signals10connectionEEED2Ev @1118
    _ZN9__gnu_cxx13new_allocatorISt10_List_nodeIN5boost7signals6detail12bound_objectEEE10deallocateEPS6_j @1119
    _ZN9__gnu_cxx13new_allocatorISt10_List_nodeIN5boost7signals6detail12bound_objectEEE8allocateEjPKv @1120
    _ZN9__gnu_cxx13new_allocatorISt10_List_nodeIN5boost7signals6detail12bound_objectEEEC2ERKS7_ @1121
    _ZN9__gnu_cxx13new_allocatorISt10_List_nodeIN5boost7signals6detail12bound_objectEEEC2Ev @1122
    _ZN9__gnu_cxx13new_allocatorISt10_List_nodeIN5boost7signals6detail12bound_objectEEED2Ev @1123
    _ZN9__gnu_cxx13new_allocatorISt10_List_nodeIN5boost7signals6detail20connection_slot_pairEEE10deallocateEPS6_j @1124
    _ZN9__gnu_cxx13new_allocatorISt10_List_nodeIN5boost7signals6detail20connection_slot_pairEEE8allocateEjPKv @1125
    _ZN9__gnu_cxx13new_allocatorISt10_List_nodeIN5boost7signals6detail20connection_slot_pairEEEC2ERKS7_ @1126
    _ZN9__gnu_cxx13new_allocatorISt10_List_nodeIN5boost7signals6detail20connection_slot_pairEEEC2Ev @1127
    _ZN9__gnu_cxx13new_allocatorISt10_List_nodeIN5boost7signals6detail20connection_slot_pairEEED2Ev @1128
    _ZN9__gnu_cxx13new_allocatorISt13_Rb_tree_nodeISt4pairIKN5boost7signals6detail12stored_groupESt4listINS5_20connection_slot_pairESaIS9_EEEEE10deallocateEPSD_j @1129
    _ZN9__gnu_cxx13new_allocatorISt13_Rb_tree_nodeISt4pairIKN5boost7signals6detail12stored_groupESt4listINS5_20connection_slot_pairESaIS9_EEEEE8allocateEjPKv @1130
    _ZN9__gnu_cxx13new_allocatorISt13_Rb_tree_nodeISt4pairIKN5boost7signals6detail12stored_groupESt4listINS5_20connection_slot_pairESaIS9_EEEEEC2ERKSE_ @1131
    _ZN9__gnu_cxx13new_allocatorISt13_Rb_tree_nodeISt4pairIKN5boost7signals6detail12stored_groupESt4listINS5_20connection_slot_pairESaIS9_EEEEEC2Ev @1132
    _ZN9__gnu_cxx13new_allocatorISt13_Rb_tree_nodeISt4pairIKN5boost7signals6detail12stored_groupESt4listINS5_20connection_slot_pairESaIS9_EEEEED2Ev @1133
    _ZN9__gnu_cxx13new_allocatorISt4pairIKN5boost7signals6detail12stored_groupESt4listINS4_20connection_slot_pairESaIS8_EEEE7destroyEPSB_ @1134
    _ZN9__gnu_cxx13new_allocatorISt4pairIKN5boost7signals6detail12stored_groupESt4listINS4_20connection_slot_pairESaIS8_EEEE9constructEPSB_RKSB_ @1135
    _ZN9__gnu_cxx13new_allocatorISt4pairIKN5boost7signals6detail12stored_groupESt4listINS4_20connection_slot_pairESaIS8_EEEEC2Ev @1136
    _ZN9__gnu_cxx13new_allocatorISt4pairIKN5boost7signals6detail12stored_groupESt4listINS4_20connection_slot_pairESaIS8_EEEED2Ev @1137
    _ZN9__gnu_cxx13new_allocatorIwE10deallocateEPwj @1138
    _ZN9__gnu_cxx13new_allocatorIwE7destroyEPw @1139
    _ZN9__gnu_cxx13new_allocatorIwE8allocateEjPKv @1140
    _ZN9__gnu_cxx17__is_null_pointerIKwEEbPT_ @1141
    _ZN9__gnu_cxx17__is_null_pointerINS_17__normal_iteratorIPwSt6vectorIwSaIwEEEEEEbT_ @1142
    _ZN9__gnu_cxx17__normal_iteratorIPKwSt6vectorIwSaIwEEEC1ERKS2_ @1143
    _ZN9__gnu_cxx17__normal_iteratorIPwSbIwSt11char_traitsIwESaIwEEEC1ERKS1_ @1144
    _ZN9__gnu_cxx17__normal_iteratorIPwSbIwSt11char_traitsIwESaIwEEEppEv @1145
    _ZN9__gnu_cxx17__normal_iteratorIPwSt6vectorIwSaIwEEEC1ERKS1_ @1146
    _ZN9__gnu_cxx17__normal_iteratorIPwSt6vectorIwSaIwEEEppEv @1147
    _ZN9__gnu_cxx24__concurrence_lock_errorD0Ev @1148
    _ZN9__gnu_cxx24__concurrence_lock_errorD1Ev @1149
    _ZN9__gnu_cxx26__concurrence_unlock_errorD0Ev @1150
    _ZN9__gnu_cxx26__concurrence_unlock_errorD1Ev @1151
    _ZN9__gnu_cxxeqIPKwSt6vectorIwSaIwEEEEbRKNS_17__normal_iteratorIT_T0_EESB_ @1152
    _ZN9__gnu_cxxmiIPwSt6vectorIwSaIwEEEENS_17__normal_iteratorIT_T0_E15difference_typeERKS8_SB_ @1153
    _ZN9__gnu_cxxneIPwSbIwSt11char_traitsIwESaIwEEEEbRKNS_17__normal_iteratorIT_T0_EESB_ @1154
    _ZN9__gnu_cxxneIPwSt6vectorIwSaIwEEEEbRKNS_17__normal_iteratorIT_T0_EESA_ @1155
    _ZNK11PluginNoLib4whatEv @1156
    _ZNK13PluginLibFail4whatEv @1157
    _ZNK15PluginNotLoaded4whatEv @1158
    _ZNK18PluginNoInstantate4whatEv @1159
    _ZNK19AftershockException4whatEv @1160
    _ZNK20windows_file_codecvt10do_unshiftERiPcS1_RS1_ @1161
    _ZNK20windows_file_codecvt11do_encodingEv @1162
    _ZNK20windows_file_codecvt13do_max_lengthEv @1163
    _ZNK20windows_file_codecvt16do_always_noconvEv @1164
    _ZNK20windows_file_codecvt5do_inERiPKcS2_RS2_PwS4_RS4_ @1165
    _ZNK20windows_file_codecvt6do_outERiPKwS2_RS2_PcS4_RS4_ @1166
    _ZNK20windows_file_codecvt9do_lengthERiPKcS2_j @1167
    _ZNK26AftershockRuntimeException4whatEv @1168
    _ZNK5_TaskgtERKSt10shared_ptrIS_E @1169
    _ZNK5boost10shared_ptrINS_11filesystem316filesystem_error5m_impEE3getEv @1170
    _ZNK5boost10shared_ptrINS_11filesystem316filesystem_error5m_impEEptEv @1171
    _ZNK5boost10shared_ptrINS_11filesystem36detail11dir_itr_impEE3getEv @1172
    _ZNK5boost10shared_ptrINS_11filesystem36detail11dir_itr_impEEptEv @1173
    _ZNK5boost10shared_ptrINS_6detail20tss_cleanup_functionEE3getEv @1174
    _ZNK5boost10shared_ptrINS_6detail20tss_cleanup_functionEEcvMS3_PS2_Ev @1175
    _ZNK5boost10shared_ptrINS_6detail20tss_cleanup_functionEEdeEv @1176
    _ZNK5boost10shared_ptrINS_7signals6detail16basic_connectionEE3getEv @1177
    _ZNK5boost10shared_ptrINS_7signals6detail16basic_connectionEEptEv @1178
    _ZNK5boost10shared_ptrINS_7signals6detail16signal_base_implEEptEv @1179
    _ZNK5boost10shared_ptrINS_7signals6detail9slot_base6data_tEEptEv @1180
    _ZNK5boost11filesystem311file_status4typeEv @1181
    _ZNK5boost11filesystem315directory_entry12m_get_statusEPNS_6system10error_codeE @1182
    _ZNK5boost11filesystem315directory_entry20m_get_symlink_statusEPNS_6system10error_codeE @1183
    _ZNK5boost11filesystem315directory_entry4pathEv @1184
    _ZNK5boost11filesystem316filesystem_error4whatEv @1185
    _ZNK5boost11filesystem318directory_iterator11dereferenceEv @1186
    _ZNK5boost11filesystem318directory_iterator5equalERKS1_ @1187
    _ZNK5boost11filesystem34path11is_absoluteEv @1188
    _ZNK5boost11filesystem34path11parent_pathEv @1189
    _ZNK5boost11filesystem34path13has_root_nameEv @1190
    _ZNK5boost11filesystem34path13relative_pathEv @1191
    _ZNK5boost11filesystem34path14generic_stringERKSt7codecvtIwciE @1192
    _ZNK5boost11filesystem34path14root_directoryEv @1193
    _ZNK5boost11filesystem34path15generic_wstringEv @1194
    _ZNK5boost11filesystem34path17m_parent_path_endEv @1195
    _ZNK5boost11filesystem34path18has_root_directoryEv @1196
    _ZNK5boost11filesystem34path3endEv @1197
    _ZNK5boost11filesystem34path4stemEv @1198
    _ZNK5boost11filesystem34path5beginEv @1199
    _ZNK5boost11filesystem34path5c_strEv @1200
    _ZNK5boost11filesystem34path5emptyEv @1201
    _ZNK5boost11filesystem34path6nativeEv @1202
    _ZNK5boost11filesystem34path6stringERKSt7codecvtIwciE @1203
    _ZNK5boost11filesystem34path6stringEv @1204
    _ZNK5boost11filesystem34path7wstringEv @1205
    _ZNK5boost11filesystem34path8filenameEv @1206
    _ZNK5boost11filesystem34path8iterator11dereferenceEv @1207
    _ZNK5boost11filesystem34path8iterator5equalERKS2_ @1208
    _ZNK5boost11filesystem34path9extensionEv @1209
    _ZNK5boost11filesystem34path9root_nameEv @1210
    _ZNK5boost11filesystem34path9root_pathEv @1211
    _ZNK5boost12scoped_arrayIcE3getEv @1212
    _ZNK5boost12scoped_arrayIwE3getEv @1213
    _ZNK5boost13function_base28has_trivial_copy_and_destroyEv @1214
    _ZNK5boost13function_base5emptyEv @1215
    _ZNK5boost13intrusive_ptrINS_6detail16thread_data_baseEE3getEv @1216
    _ZNK5boost13intrusive_ptrINS_6detail16thread_data_baseEEcvMS3_PS2_Ev @1217
    _ZNK5boost13intrusive_ptrINS_6detail16thread_data_baseEEptEv @1218
    _ZNK5boost15iterator_facadeINS_11filesystem318directory_iteratorENS1_15directory_entryENS_25single_pass_traversal_tagERS3_iE7derivedEv @1219
    _ZNK5boost15iterator_facadeINS_11filesystem318directory_iteratorENS1_15directory_entryENS_25single_pass_traversal_tagERS3_iEdeEv @1220
    _ZNK5boost15iterator_facadeINS_11filesystem318directory_iteratorENS1_15directory_entryENS_25single_pass_traversal_tagERS3_iEptEv @1221
    _ZNK5boost15iterator_facadeINS_11filesystem34path8iteratorEKS2_NS_27bidirectional_traversal_tagERS4_iE7derivedEv @1222
    _ZNK5boost15iterator_facadeINS_11filesystem34path8iteratorEKS2_NS_27bidirectional_traversal_tagERS4_iEdeEv @1223
    _ZNK5boost15iterator_facadeINS_11filesystem34path8iteratorEKS2_NS_27bidirectional_traversal_tagERS4_iEptEv @1224
    _ZNK5boost15iterator_facadeINS_7signals6detail23named_slot_map_iteratorENS2_20connection_slot_pairENS_21forward_traversal_tagERS4_iE7derivedEv @1225
    _ZNK5boost15iterator_facadeINS_7signals6detail23named_slot_map_iteratorENS2_20connection_slot_pairENS_21forward_traversal_tagERS4_iEdeEv @1226
    _ZNK5boost15iterator_facadeINS_7signals6detail23named_slot_map_iteratorENS2_20connection_slot_pairENS_21forward_traversal_tagERS4_iEptEv @1227
    _ZNK5boost16bad_lexical_cast4whatEv @1228
    _ZNK5boost16exception_detail10clone_implINS0_10bad_alloc_EE5cloneEv @1229
    _ZNK5boost16exception_detail10clone_implINS0_10bad_alloc_EE7rethrowEv @1230
    _ZNK5boost16exception_detail10clone_implINS0_14bad_exception_EE5cloneEv @1231
    _ZNK5boost16exception_detail10clone_implINS0_14bad_exception_EE7rethrowEv @1232
    _ZNK5boost16exception_detail10clone_implINS0_19error_info_injectorINS_16bad_lexical_castEEEE5cloneEv @1233
    _ZNK5boost16exception_detail10clone_implINS0_19error_info_injectorINS_16bad_lexical_castEEEE7rethrowEv @1234
    _ZNK5boost16exception_detail10clone_implINS0_19error_info_injectorINS_17bad_function_callEEEE5cloneEv @1235
    _ZNK5boost16exception_detail10clone_implINS0_19error_info_injectorINS_17bad_function_callEEEE7rethrowEv @1236
    _ZNK5boost16exception_detail10clone_implINS0_19error_info_injectorINS_21thread_resource_errorEEEE5cloneEv @1237
    _ZNK5boost16exception_detail10clone_implINS0_19error_info_injectorINS_21thread_resource_errorEEEE7rethrowEv @1238
    _ZNK5boost16exception_detail10clone_implINS0_19error_info_injectorINS_6system12system_errorEEEE5cloneEv @1239
    _ZNK5boost16exception_detail10clone_implINS0_19error_info_injectorINS_6system12system_errorEEEE7rethrowEv @1240
    _ZNK5boost16exception_detail10clone_implINS0_19error_info_injectorINS_9gregorian11bad_weekdayEEEE5cloneEv @1241
    _ZNK5boost16exception_detail10clone_implINS0_19error_info_injectorINS_9gregorian11bad_weekdayEEEE7rethrowEv @1242
    _ZNK5boost16exception_detail10clone_implINS0_19error_info_injectorINS_9gregorian15bad_day_of_yearEEEE5cloneEv @1243
    _ZNK5boost16exception_detail10clone_implINS0_19error_info_injectorINS_9gregorian15bad_day_of_yearEEEE7rethrowEv @1244
    _ZNK5boost16exception_detail10clone_implINS0_19error_info_injectorINS_9gregorian16bad_day_of_monthEEEE5cloneEv @1245
    _ZNK5boost16exception_detail10clone_implINS0_19error_info_injectorINS_9gregorian16bad_day_of_monthEEEE7rethrowEv @1246
    _ZNK5boost16exception_detail10clone_implINS0_19error_info_injectorINS_9gregorian8bad_yearEEEE5cloneEv @1247
    _ZNK5boost16exception_detail10clone_implINS0_19error_info_injectorINS_9gregorian8bad_yearEEEE7rethrowEv @1248
    _ZNK5boost16exception_detail10clone_implINS0_19error_info_injectorINS_9gregorian9bad_monthEEEE5cloneEv @1249
    _ZNK5boost16exception_detail10clone_implINS0_19error_info_injectorINS_9gregorian9bad_monthEEEE7rethrowEv @1250
    _ZNK5boost16exception_detail10clone_implINS0_19error_info_injectorISt12out_of_rangeEEE5cloneEv @1251
    _ZNK5boost16exception_detail10clone_implINS0_19error_info_injectorISt12out_of_rangeEEE7rethrowEv @1252
    _ZNK5boost16exception_detail10clone_implINS0_19error_info_injectorISt13runtime_errorEEE5cloneEv @1253
    _ZNK5boost16exception_detail10clone_implINS0_19error_info_injectorISt13runtime_errorEEE7rethrowEv @1254
    _ZNK5boost16exception_detail10clone_implINS0_19error_info_injectorISt9bad_allocEEE5cloneEv @1255
    _ZNK5boost16exception_detail10clone_implINS0_19error_info_injectorISt9bad_allocEEE7rethrowEv @1256
    _ZNK5boost16exception_detail12refcount_ptrINS0_20error_info_containerEE3getEv @1257
    _ZNK5boost21thread_resource_error4whatEv @1258
    _ZNK5boost3any6holderI15Combine_ResultsISt4listIbSaIbEEEE4typeEv @1259
    _ZNK5boost3any6holderI15Combine_ResultsISt4listIbSaIbEEEE5cloneEv @1260
    _ZNK5boost3any6holderINS_10last_valueIvEEE4typeEv @1261
    _ZNK5boost3any6holderINS_10last_valueIvEEE5cloneEv @1262
    _ZNK5boost4asio22basic_socket_streambufINS0_2ip3tcpENS0_21stream_socket_serviceIS3_EENS_10posix_time5ptimeENS0_11time_traitsIS7_EENS0_22deadline_timer_serviceIS7_S9_EEE5errorEv @1263
    _ZNK5boost4asio5error6detail13misc_category4nameEv @1264
    _ZNK5boost4asio5error6detail13misc_category7messageEi @1265
    _ZNK5boost6detail5win3214handle_managercvPvEv @1266
    _ZNK5boost6detail5win3214handle_managerntEv @1267
    _ZNK5boost6detail7timeout11is_sentinelEv @1268
    _ZNK5boost6detail7timeout22remaining_millisecondsEv @1269
    _ZNK5boost6detail8function13basic_vtable2IbNS_7signals6detail12stored_groupES5_E5clearERNS1_15function_bufferE @1270
    _ZNK5boost6system10error_code5valueEv @1271
    _ZNK5boost6system10error_code7messageEv @1272
    _ZNK5boost6system10error_code8categoryEv @1273
    _ZNK5boost6system10error_codecvPFvvEEv @1274
    _ZNK5boost6system12system_error4whatEv @1275
    _ZNK5boost6system14error_category10equivalentERKNS0_10error_codeEi @1276
    _ZNK5boost6system14error_category10equivalentEiRKNS0_15error_conditionE @1277
    _ZNK5boost6system14error_category23default_error_conditionEi @1278
    _ZNK5boost6system14error_categoryeqERKS1_ @1279
    _ZNK5boost6thread15get_thread_infoEv @1280
    _ZNK5boost6thread22interruption_requestedEv @1281
    _ZNK5boost6thread6get_idEv @1282
    _ZNK5boost6thread8joinableEv @1283
    _ZNK5boost7signals10connection10disconnectEv @1284
    _ZNK5boost7signals10connection14get_connectionEv @1285
    _ZNK5boost7signals10connection9connectedEv @1286
    _ZNK5boost7signals10connectioneqERKS1_ @1287
    _ZNK5boost7signals10connectionltERKS1_ @1288
    _ZNK5boost7signals6detail12bound_objecteqERKS2_ @1289
    _ZNK5boost7signals6detail12bound_objectltERKS2_ @1290
    _ZNK5boost7signals6detail12stored_group5emptyEv @1291
    _ZNK5boost7signals6detail14named_slot_map5emptyESt23_Rb_tree_const_iteratorISt4pairIKNS1_12stored_groupESt4listINS1_20connection_slot_pairESaIS8_EEEE @1292
    _ZNK5boost7signals6detail16signal_base_impl25remove_disconnected_slotsEv @1293
    _ZNK5boost7signals6detail16signal_base_impl5emptyEv @1294
    _ZNK5boost7signals6detail16signal_base_impl9num_slotsEv @1295
    _ZNK5boost7signals6detail23named_slot_map_iterator11dereferenceEv @1296
    _ZNK5boost7signals6detail23named_slot_map_iterator5equalERKS2_ @1297
    _ZNK5boost7signals9trackable16signal_connectedENS0_10connectionERNS0_6detail12bound_objectE @1298
    _ZNK5boost9date_time10date_facetINS_9gregorian4dateEcSt19ostreambuf_iteratorIcSt11char_traitsIcEEE14do_put_specialES7_RSt8ios_basecNS0_14special_valuesE @1299
    _ZNK5boost9date_time10date_facetINS_9gregorian4dateEcSt19ostreambuf_iteratorIcSt11char_traitsIcEEE9do_put_tmES7_RSt8ios_basecRK2tmSs @1300
    _ZNK5boost9date_time10time_facetINS_10posix_time5ptimeEcSt19ostreambuf_iteratorIcSt11char_traitsIcEEE3putES7_RSt8ios_basecRKS3_ @1301
    _ZNK5boost9date_time11int_adapterIjE10is_specialEv @1302
    _ZNK5boost9date_time11int_adapterIjE11is_infinityEv @1303
    _ZNK5boost9date_time11int_adapterIjE6is_nanEv @1304
    _ZNK5boost9date_time11int_adapterIjE9as_numberEv @1305
    _ZNK5boost9date_time11int_adapterIxE10as_specialEv @1306
    _ZNK5boost9date_time11int_adapterIxE10is_specialEv @1307
    _ZNK5boost9date_time11int_adapterIxE11is_infinityEv @1308
    _ZNK5boost9date_time11int_adapterIxE6is_nanEv @1309
    _ZNK5boost9date_time11int_adapterIxE9as_numberEv @1310
    _ZNK5boost9date_time11int_adapterIxEmiIxEES2_RKNS1_IT_EE @1311
    _ZNK5boost9date_time11int_adapterIxEplIjEES2_RKNS1_IT_EE @1312
    _ZNK5boost9date_time13time_durationINS_10posix_time13time_durationENS0_22time_resolution_traitsINS0_37time_resolution_traits_adapted64_implELNS0_16time_resolutionsE5ELx1000000ELt6EiEEE10is_specialEv @1313
    _ZNK5boost9date_time13time_durationINS_10posix_time13time_durationENS0_22time_resolution_traitsINS0_37time_resolution_traits_adapted64_implELNS0_16time_resolutionsE5ELx1000000ELt6EiEEE18fractional_secondsEv @1314
    _ZNK5boost9date_time13time_durationINS_10posix_time13time_durationENS0_22time_resolution_traitsINS0_37time_resolution_traits_adapted64_implELNS0_16time_resolutionsE5ELx1000000ELt6EiEEE18total_millisecondsEv @1315
    _ZNK5boost9date_time13time_durationINS_10posix_time13time_durationENS0_22time_resolution_traitsINS0_37time_resolution_traits_adapted64_implELNS0_16time_resolutionsE5ELx1000000ELt6EiEEE5hoursEv @1316
    _ZNK5boost9date_time13time_durationINS_10posix_time13time_durationENS0_22time_resolution_traitsINS0_37time_resolution_traits_adapted64_implELNS0_16time_resolutionsE5ELx1000000ELt6EiEEE5ticksEv @1317
    _ZNK5boost9date_time13time_durationINS_10posix_time13time_durationENS0_22time_resolution_traitsINS0_37time_resolution_traits_adapted64_implELNS0_16time_resolutionsE5ELx1000000ELt6EiEEE7get_repEv @1318
    _ZNK5boost9date_time13time_durationINS_10posix_time13time_durationENS0_22time_resolution_traitsINS0_37time_resolution_traits_adapted64_implELNS0_16time_resolutionsE5ELx1000000ELt6EiEEE7minutesEv @1319
    _ZNK5boost9date_time13time_durationINS_10posix_time13time_durationENS0_22time_resolution_traitsINS0_37time_resolution_traits_adapted64_implELNS0_16time_resolutionsE5ELx1000000ELt6EiEEE7secondsEv @1320
    _ZNK5boost9date_time16counted_time_repINS_10posix_time33millisec_posix_time_system_configEE10is_specialEv @1321
    _ZNK5boost9date_time16counted_time_repINS_10posix_time33millisec_posix_time_system_configEE10time_countEv @1322
    _ZNK5boost9date_time16counted_time_repINS_10posix_time33millisec_posix_time_system_configEE15is_pos_infinityEv @1323
    _ZNK5boost9date_time16counted_time_repINS_10posix_time33millisec_posix_time_system_configEE3todEv @1324
    _ZNK5boost9date_time16counted_time_repINS_10posix_time33millisec_posix_time_system_configEE4dateEv @1325
    _ZNK5boost9date_time16counted_time_repINS_10posix_time33millisec_posix_time_system_configEE7get_repEv @1326
    _ZNK5boost9date_time16counted_time_repINS_10posix_time33millisec_posix_time_system_configEE9day_countEv @1327
    _ZNK5boost9date_time4dateINS_9gregorian4dateENS2_18gregorian_calendarENS2_13date_durationEE11is_infinityEv @1328
    _ZNK5boost9date_time4dateINS_9gregorian4dateENS2_18gregorian_calendarENS2_13date_durationEE13is_not_a_dateEv @1329
    _ZNK5boost9date_time4dateINS_9gregorian4dateENS2_18gregorian_calendarENS2_13date_durationEE3dayEv @1330
    _ZNK5boost9date_time4dateINS_9gregorian4dateENS2_18gregorian_calendarENS2_13date_durationEE4yearEv @1331
    _ZNK5boost9date_time4dateINS_9gregorian4dateENS2_18gregorian_calendarENS2_13date_durationEE5monthEv @1332
    _ZNK5boost9date_time4dateINS_9gregorian4dateENS2_18gregorian_calendarENS2_13date_durationEE9day_countEv @1333
    _ZNK5boost9date_time9base_timeINS_10posix_time5ptimeENS0_19counted_time_systemINS0_16counted_time_repINS2_33millisec_posix_time_system_configEEEEEE11time_of_dayEv @1334
    _ZNK5boost9date_time9base_timeINS_10posix_time5ptimeENS0_19counted_time_systemINS0_16counted_time_repINS2_33millisec_posix_time_system_configEEEEEE15is_pos_infinityEv @1335
    _ZNK5boost9date_time9base_timeINS_10posix_time5ptimeENS0_19counted_time_systemINS0_16counted_time_repINS2_33millisec_posix_time_system_configEEEEEE4dateEv @1336
    _ZNK5boost9date_time9base_timeINS_10posix_time5ptimeENS0_19counted_time_systemINS0_16counted_time_repINS2_33millisec_posix_time_system_configEEEEEEltERKS3_ @1337
    _ZNK5boost9date_time9base_timeINS_10posix_time5ptimeENS0_19counted_time_systemINS0_16counted_time_repINS2_33millisec_posix_time_system_configEEEEEEmiERKS3_ @1338
    _ZNK5boost9function2IbNS_7signals6detail12stored_groupES3_E10get_vtableEv @1339
    _ZNK5boost9function2IbNS_7signals6detail12stored_groupES3_EclES3_S3_ @1340
    _ZNK5boost9gregorian10greg_monthcvtEv @1341
    _ZNK5boost9gregorian4date10day_numberEv @1342
    _ZNK5boost9gregorian4date11day_of_yearEv @1343
    _ZNK5boost9gregorian8greg_daycvtEv @1344
    _ZNK5boost9gregorian9greg_yearcvtEv @1345
    _ZNK9__gnu_cxx13new_allocatorISt10_List_nodeIN5boost7signals10connectionEEE8max_sizeEv @1346
    _ZNK9__gnu_cxx13new_allocatorISt10_List_nodeIN5boost7signals6detail12bound_objectEEE8max_sizeEv @1347
    _ZNK9__gnu_cxx13new_allocatorISt10_List_nodeIN5boost7signals6detail20connection_slot_pairEEE8max_sizeEv @1348
    _ZNK9__gnu_cxx13new_allocatorISt13_Rb_tree_nodeISt4pairIKN5boost7signals6detail12stored_groupESt4listINS5_20connection_slot_pairESaIS9_EEEEE8max_sizeEv @1349
    _ZNK9__gnu_cxx13new_allocatorIwE8max_sizeEv @1350
    _ZNK9__gnu_cxx17__normal_iteratorIPKwSbIwSt11char_traitsIwESaIwEEEdeEv @1351
    _ZNK9__gnu_cxx17__normal_iteratorIPKwSt6vectorIwSaIwEEE4baseEv @1352
    _ZNK9__gnu_cxx17__normal_iteratorIPwSbIwSt11char_traitsIwESaIwEEE4baseEv @1353
    _ZNK9__gnu_cxx17__normal_iteratorIPwSbIwSt11char_traitsIwESaIwEEEdeEv @1354
    _ZNK9__gnu_cxx17__normal_iteratorIPwSbIwSt11char_traitsIwESaIwEEEmiERKi @1355
    _ZNK9__gnu_cxx17__normal_iteratorIPwSt6vectorIwSaIwEEE4baseEv @1356
    _ZNK9__gnu_cxx17__normal_iteratorIPwSt6vectorIwSaIwEEEdeEv @1357
    _ZNK9__gnu_cxx24__concurrence_lock_error4whatEv @1358
    _ZNK9__gnu_cxx26__concurrence_unlock_error4whatEv @1359
    _ZNKSt10_List_baseIN5boost7signals10connectionESaIS2_EE13get_allocatorEv @1360
    _ZNKSt10_List_baseIN5boost7signals10connectionESaIS2_EE19_M_get_Tp_allocatorEv @1361
    _ZNKSt10_List_baseIN5boost7signals10connectionESaIS2_EE21_M_get_Node_allocatorEv @1362
    _ZNKSt10_List_baseIN5boost7signals6detail12bound_objectESaIS3_EE13get_allocatorEv @1363
    _ZNKSt10_List_baseIN5boost7signals6detail12bound_objectESaIS3_EE19_M_get_Tp_allocatorEv @1364
    _ZNKSt10_List_baseIN5boost7signals6detail12bound_objectESaIS3_EE21_M_get_Node_allocatorEv @1365
    _ZNKSt10_List_baseIN5boost7signals6detail20connection_slot_pairESaIS3_EE19_M_get_Tp_allocatorEv @1366
    _ZNKSt10_List_baseIN5boost7signals6detail20connection_slot_pairESaIS3_EE21_M_get_Node_allocatorEv @1367
    _ZNKSt10_Select1stISt4pairIKN5boost7signals6detail12stored_groupESt4listINS3_20connection_slot_pairESaIS7_EEEEclERKSA_ @1368
    _ZNKSt14_List_iteratorIN5boost7signals10connectionEEdeEv @1369
    _ZNKSt14_List_iteratorIN5boost7signals10connectionEEeqERKS3_ @1370
    _ZNKSt14_List_iteratorIN5boost7signals10connectionEEneERKS3_ @1371
    _ZNKSt14_List_iteratorIN5boost7signals10connectionEEptEv @1372
    _ZNKSt14_List_iteratorIN5boost7signals6detail12bound_objectEEdeEv @1373
    _ZNKSt14_List_iteratorIN5boost7signals6detail12bound_objectEEeqERKS4_ @1374
    _ZNKSt14_List_iteratorIN5boost7signals6detail12bound_objectEEneERKS4_ @1375
    _ZNKSt14_List_iteratorIN5boost7signals6detail12bound_objectEEptEv @1376
    _ZNKSt14_List_iteratorIN5boost7signals6detail20connection_slot_pairEEdeEv @1377
    _ZNKSt14_List_iteratorIN5boost7signals6detail20connection_slot_pairEEeqERKS4_ @1378
    _ZNKSt14_List_iteratorIN5boost7signals6detail20connection_slot_pairEEneERKS4_ @1379
    _ZNKSt14_List_iteratorIN5boost7signals6detail20connection_slot_pairEEptEv @1380
    _ZNKSt15_Deque_iteratorIcRcPcEmiEi @1381
    _ZNKSt15_Deque_iteratorIcRcPcEplEi @1382
    _ZNKSt17_Rb_tree_iteratorISt4pairIKN5boost7signals6detail12stored_groupESt4listINS3_20connection_slot_pairESaIS7_EEEEdeEv @1383
    _ZNKSt17_Rb_tree_iteratorISt4pairIKN5boost7signals6detail12stored_groupESt4listINS3_20connection_slot_pairESaIS7_EEEEeqERKSB_ @1384
    _ZNKSt17_Rb_tree_iteratorISt4pairIKN5boost7signals6detail12stored_groupESt4listINS3_20connection_slot_pairESaIS7_EEEEneERKSB_ @1385
    _ZNKSt17_Rb_tree_iteratorISt4pairIKN5boost7signals6detail12stored_groupESt4listINS3_20connection_slot_pairESaIS7_EEEEptEv @1386
    _ZNKSt20_List_const_iteratorIN5boost7signals10connectionEEdeEv @1387
    _ZNKSt20_List_const_iteratorIN5boost7signals10connectionEEeqERKS3_ @1388
    _ZNKSt20_List_const_iteratorIN5boost7signals10connectionEEneERKS3_ @1389
    _ZNKSt20_List_const_iteratorIN5boost7signals6detail12bound_objectEEdeEv @1390
    _ZNKSt20_List_const_iteratorIN5boost7signals6detail12bound_objectEEeqERKS4_ @1391
    _ZNKSt20_List_const_iteratorIN5boost7signals6detail12bound_objectEEneERKS4_ @1392
    _ZNKSt20_List_const_iteratorIN5boost7signals6detail20connection_slot_pairEEdeEv @1393
    _ZNKSt20_List_const_iteratorIN5boost7signals6detail20connection_slot_pairEEneERKS4_ @1394
    _ZNKSt23_Rb_tree_const_iteratorISt4pairIKN5boost7signals6detail12stored_groupESt4listINS3_20connection_slot_pairESaIS7_EEEE13_M_const_castEv @1395
    _ZNKSt23_Rb_tree_const_iteratorISt4pairIKN5boost7signals6detail12stored_groupESt4listINS3_20connection_slot_pairESaIS7_EEEEneERKSB_ @1396
    _ZNKSt23_Rb_tree_const_iteratorISt4pairIKN5boost7signals6detail12stored_groupESt4listINS3_20connection_slot_pairESaIS7_EEEEptEv @1397
    _ZNKSt23__codecvt_abstract_baseIwciE2inERiPKcS3_RS3_PwS5_RS5_ @1398
    _ZNKSt23__codecvt_abstract_baseIwciE3outERiPKwS3_RS3_PcS5_RS5_ @1399
    _ZNKSt3mapIN5boost7signals6detail12stored_groupESt4listINS2_20connection_slot_pairESaIS5_EENS0_9function2IbS3_S3_EESaISt4pairIKS3_S7_EEE5beginEv @1400
    _ZNKSt3mapIN5boost7signals6detail12stored_groupESt4listINS2_20connection_slot_pairESaIS5_EENS0_9function2IbS3_S3_EESaISt4pairIKS3_S7_EEE8key_compEv @1401
    _ZNKSt4listIN5boost7signals10connectionESaIS2_EE13get_allocatorEv @1402
    _ZNKSt4listIN5boost7signals10connectionESaIS2_EE3endEv @1403
    _ZNKSt4listIN5boost7signals10connectionESaIS2_EE4backEv @1404
    _ZNKSt4listIN5boost7signals10connectionESaIS2_EE4rendEv @1405
    _ZNKSt4listIN5boost7signals10connectionESaIS2_EE4sizeEv @1406
    _ZNKSt4listIN5boost7signals10connectionESaIS2_EE5beginEv @1407
    _ZNKSt4listIN5boost7signals10connectionESaIS2_EE5emptyEv @1408
    _ZNKSt4listIN5boost7signals10connectionESaIS2_EE5frontEv @1409
    _ZNKSt4listIN5boost7signals10connectionESaIS2_EE6rbeginEv @1410
    _ZNKSt4listIN5boost7signals10connectionESaIS2_EE8max_sizeEv @1411
    _ZNKSt4listIN5boost7signals6detail12bound_objectESaIS3_EE13get_allocatorEv @1412
    _ZNKSt4listIN5boost7signals6detail12bound_objectESaIS3_EE3endEv @1413
    _ZNKSt4listIN5boost7signals6detail12bound_objectESaIS3_EE4backEv @1414
    _ZNKSt4listIN5boost7signals6detail12bound_objectESaIS3_EE4rendEv @1415
    _ZNKSt4listIN5boost7signals6detail12bound_objectESaIS3_EE4sizeEv @1416
    _ZNKSt4listIN5boost7signals6detail12bound_objectESaIS3_EE5beginEv @1417
    _ZNKSt4listIN5boost7signals6detail12bound_objectESaIS3_EE5emptyEv @1418
    _ZNKSt4listIN5boost7signals6detail12bound_objectESaIS3_EE5frontEv @1419
    _ZNKSt4listIN5boost7signals6detail12bound_objectESaIS3_EE6rbeginEv @1420
    _ZNKSt4listIN5boost7signals6detail12bound_objectESaIS3_EE8max_sizeEv @1421
    _ZNKSt4listIN5boost7signals6detail20connection_slot_pairESaIS3_EE3endEv @1422
    _ZNKSt4listIN5boost7signals6detail20connection_slot_pairESaIS3_EE5beginEv @1423
    _ZNKSt4listIN5boost7signals6detail20connection_slot_pairESaIS3_EE5emptyEv @1424
    _ZNKSt6vectorIwSaIwEE3endEv @1425
    _ZNKSt6vectorIwSaIwEE4sizeEv @1426
    _ZNKSt6vectorIwSaIwEE5beginEv @1427
    _ZNKSt6vectorIwSaIwEE5emptyEv @1428
    _ZNKSt8_Rb_treeIN5boost7signals6detail12stored_groupESt4pairIKS3_St4listINS2_20connection_slot_pairESaIS7_EEESt10_Select1stISA_ENS0_9function2IbS3_S3_EESaISA_EE13get_allocatorEv @1429
    _ZNKSt8_Rb_treeIN5boost7signals6detail12stored_groupESt4pairIKS3_St4listINS2_20connection_slot_pairESaIS7_EEESt10_Select1stISA_ENS0_9function2IbS3_S3_EESaISA_EE21_M_get_Node_allocatorEv @1430
    _ZNKSt8_Rb_treeIN5boost7signals6detail12stored_groupESt4pairIKS3_St4listINS2_20connection_slot_pairESaIS7_EEESt10_Select1stISA_ENS0_9function2IbS3_S3_EESaISA_EE4sizeEv @1431
    _ZNKSt8_Rb_treeIN5boost7signals6detail12stored_groupESt4pairIKS3_St4listINS2_20connection_slot_pairESaIS7_EEESt10_Select1stISA_ENS0_9function2IbS3_S3_EESaISA_EE5beginEv @1432
    _ZNKSt8_Rb_treeIN5boost7signals6detail12stored_groupESt4pairIKS3_St4listINS2_20connection_slot_pairESaIS7_EEESt10_Select1stISA_ENS0_9function2IbS3_S3_EESaISA_EE8key_compEv @1433
    _ZNKSt8auto_ptrIN5boost7signals6detail23named_slot_map_iteratorEEdeEv @1434
    _ZNSaIN5boost7signals10connectionEEC1ISt10_List_nodeIS1_EEERKSaIT_E @1435
    _ZNSaIN5boost7signals10connectionEED1Ev @1436
    _ZNSaIN5boost7signals6detail12bound_objectEEC1ISt10_List_nodeIS2_EEERKSaIT_E @1437
    _ZNSaIN5boost7signals6detail12bound_objectEED1Ev @1438
    _ZNSaIN5boost7signals6detail20connection_slot_pairEEC1ISt10_List_nodeIS2_EEERKSaIT_E @1439
    _ZNSaIN5boost7signals6detail20connection_slot_pairEED1Ev @1440
    _ZNSaISt10_List_nodeIN5boost7signals10connectionEEEC1IS2_EERKSaIT_E @1441
    _ZNSaISt10_List_nodeIN5boost7signals10connectionEEEC2ERKS4_ @1442
    _ZNSaISt10_List_nodeIN5boost7signals10connectionEEEC2Ev @1443
    _ZNSaISt10_List_nodeIN5boost7signals10connectionEEED1Ev @1444
    _ZNSaISt10_List_nodeIN5boost7signals10connectionEEED2Ev @1445
    _ZNSaISt10_List_nodeIN5boost7signals6detail12bound_objectEEEC1IS3_EERKSaIT_E @1446
    _ZNSaISt10_List_nodeIN5boost7signals6detail12bound_objectEEEC2ERKS5_ @1447
    _ZNSaISt10_List_nodeIN5boost7signals6detail12bound_objectEEEC2Ev @1448
    _ZNSaISt10_List_nodeIN5boost7signals6detail12bound_objectEEED1Ev @1449
    _ZNSaISt10_List_nodeIN5boost7signals6detail12bound_objectEEED2Ev @1450
    _ZNSaISt10_List_nodeIN5boost7signals6detail20connection_slot_pairEEEC1IS3_EERKSaIT_E @1451
    _ZNSaISt10_List_nodeIN5boost7signals6detail20connection_slot_pairEEEC2ERKS5_ @1452
    _ZNSaISt10_List_nodeIN5boost7signals6detail20connection_slot_pairEEEC2Ev @1453
    _ZNSaISt10_List_nodeIN5boost7signals6detail20connection_slot_pairEEED1Ev @1454
    _ZNSaISt10_List_nodeIN5boost7signals6detail20connection_slot_pairEEED2Ev @1455
    _ZNSaISt13_Rb_tree_nodeISt4pairIKN5boost7signals6detail12stored_groupESt4listINS3_20connection_slot_pairESaIS7_EEEEEC1ISA_EERKSaIT_E @1456
    _ZNSaISt13_Rb_tree_nodeISt4pairIKN5boost7signals6detail12stored_groupESt4listINS3_20connection_slot_pairESaIS7_EEEEEC2ERKSC_ @1457
    _ZNSaISt13_Rb_tree_nodeISt4pairIKN5boost7signals6detail12stored_groupESt4listINS3_20connection_slot_pairESaIS7_EEEEED1Ev @1458
    _ZNSaISt13_Rb_tree_nodeISt4pairIKN5boost7signals6detail12stored_groupESt4listINS3_20connection_slot_pairESaIS7_EEEEED2Ev @1459
    _ZNSaISt4pairIKN5boost7signals6detail12stored_groupESt4listINS2_20connection_slot_pairESaIS6_EEEEC1Ev @1460
    _ZNSaISt4pairIKN5boost7signals6detail12stored_groupESt4listINS2_20connection_slot_pairESaIS6_EEEEC1ISt13_Rb_tree_nodeIS9_EEERKSaIT_E @1461
    _ZNSaISt4pairIKN5boost7signals6detail12stored_groupESt4listINS2_20connection_slot_pairESaIS6_EEEED1Ev @1462
    _ZNSbIwSt11char_traitsIwESaIwEE12_S_constructIN9__gnu_cxx17__normal_iteratorIPwSt6vectorIwS1_EEEEES6_T_SA_RKS1_ @1463
    _ZNSbIwSt11char_traitsIwESaIwEE12_S_constructIN9__gnu_cxx17__normal_iteratorIPwSt6vectorIwS1_EEEEES6_T_SA_RKS1_St20forward_iterator_tag @1464
    _ZNSbIwSt11char_traitsIwESaIwEE12_S_constructIPKwEEPwT_S7_RKS1_ @1465
    _ZNSbIwSt11char_traitsIwESaIwEE12_S_constructIPKwEEPwT_S7_RKS1_St20forward_iterator_tag @1466
    _ZNSbIwSt11char_traitsIwESaIwEE13_S_copy_charsIN9__gnu_cxx17__normal_iteratorIPwSt6vectorIwS1_EEEEEvS6_T_SA_ @1467
    _ZNSbIwSt11char_traitsIwESaIwEE16_S_construct_auxIN9__gnu_cxx17__normal_iteratorIPwSt6vectorIwS1_EEEEES6_T_SA_RKS1_St12__false_type @1468
    _ZNSbIwSt11char_traitsIwESaIwEE16_S_construct_auxIPKwEEPwT_S7_RKS1_St12__false_type @1469
    _ZNSbIwSt11char_traitsIwESaIwEE6appendIPKwEERS2_T_S7_ @1470
    _ZNSbIwSt11char_traitsIwESaIwEE6appendIPwEERS2_T_S6_ @1471
    _ZNSbIwSt11char_traitsIwESaIwEEC1IN9__gnu_cxx17__normal_iteratorIPwSt6vectorIwS1_EEEEET_SA_RKS1_ @1472
    _ZNSbIwSt11char_traitsIwESaIwEEC1IPKwEET_S6_RKS1_ @1473
    _ZNSs6appendIPcEERSsT_S2_ @1474
    _ZNSt10_Iter_baseIPwLb0EE7_S_baseES0_ @1475
    _ZNSt10_List_baseIN5boost7signals10connectionESaIS2_EE10_List_implC1ERKSaISt10_List_nodeIS2_EE @1476
    _ZNSt10_List_baseIN5boost7signals10connectionESaIS2_EE10_List_implC1Ev @1477
    _ZNSt10_List_baseIN5boost7signals10connectionESaIS2_EE10_List_implD1Ev @1478
    _ZNSt10_List_baseIN5boost7signals10connectionESaIS2_EE11_M_get_nodeEv @1479
    _ZNSt10_List_baseIN5boost7signals10connectionESaIS2_EE11_M_put_nodeEPSt10_List_nodeIS2_E @1480
    _ZNSt10_List_baseIN5boost7signals10connectionESaIS2_EE21_M_get_Node_allocatorEv @1481
    _ZNSt10_List_baseIN5boost7signals10connectionESaIS2_EE7_M_initEv @1482
    _ZNSt10_List_baseIN5boost7signals10connectionESaIS2_EE8_M_clearEv @1483
    _ZNSt10_List_baseIN5boost7signals10connectionESaIS2_EEC2ERKS3_ @1484
    _ZNSt10_List_baseIN5boost7signals10connectionESaIS2_EEC2Ev @1485
    _ZNSt10_List_baseIN5boost7signals10connectionESaIS2_EED2Ev @1486
    _ZNSt10_List_baseIN5boost7signals6detail12bound_objectESaIS3_EE10_List_implC1ERKSaISt10_List_nodeIS3_EE @1487
    _ZNSt10_List_baseIN5boost7signals6detail12bound_objectESaIS3_EE10_List_implC1Ev @1488
    _ZNSt10_List_baseIN5boost7signals6detail12bound_objectESaIS3_EE10_List_implD1Ev @1489
    _ZNSt10_List_baseIN5boost7signals6detail12bound_objectESaIS3_EE11_M_get_nodeEv @1490
    _ZNSt10_List_baseIN5boost7signals6detail12bound_objectESaIS3_EE11_M_put_nodeEPSt10_List_nodeIS3_E @1491
    _ZNSt10_List_baseIN5boost7signals6detail12bound_objectESaIS3_EE21_M_get_Node_allocatorEv @1492
    _ZNSt10_List_baseIN5boost7signals6detail12bound_objectESaIS3_EE7_M_initEv @1493
    _ZNSt10_List_baseIN5boost7signals6detail12bound_objectESaIS3_EE8_M_clearEv @1494
    _ZNSt10_List_baseIN5boost7signals6detail12bound_objectESaIS3_EEC2ERKS4_ @1495
    _ZNSt10_List_baseIN5boost7signals6detail12bound_objectESaIS3_EEC2Ev @1496
    _ZNSt10_List_baseIN5boost7signals6detail12bound_objectESaIS3_EED2Ev @1497
    _ZNSt10_List_baseIN5boost7signals6detail20connection_slot_pairESaIS3_EE10_List_implC1ERKSaISt10_List_nodeIS3_EE @1498
    _ZNSt10_List_baseIN5boost7signals6detail20connection_slot_pairESaIS3_EE10_List_implC1Ev @1499
    _ZNSt10_List_baseIN5boost7signals6detail20connection_slot_pairESaIS3_EE10_List_implD1Ev @1500
    _ZNSt10_List_baseIN5boost7signals6detail20connection_slot_pairESaIS3_EE11_M_get_nodeEv @1501
    _ZNSt10_List_baseIN5boost7signals6detail20connection_slot_pairESaIS3_EE11_M_put_nodeEPSt10_List_nodeIS3_E @1502
    _ZNSt10_List_baseIN5boost7signals6detail20connection_slot_pairESaIS3_EE7_M_initEv @1503
    _ZNSt10_List_baseIN5boost7signals6detail20connection_slot_pairESaIS3_EE8_M_clearEv @1504
    _ZNSt10_List_baseIN5boost7signals6detail20connection_slot_pairESaIS3_EEC2ERKS4_ @1505
    _ZNSt10_List_baseIN5boost7signals6detail20connection_slot_pairESaIS3_EEC2Ev @1506
    _ZNSt10_List_baseIN5boost7signals6detail20connection_slot_pairESaIS3_EED2Ev @1507
    _ZNSt10_List_baseISt10shared_ptrI13_PluginHandleESaIS2_EE8_M_clearEv @1508
    _ZNSt11_Deque_baseIcSaIcEE17_M_initialize_mapEj @1509
    _ZNSt11__alloc_neqISaISt10_List_nodeIN5boost7signals10connectionEEELb1EE8_S_do_itERKS5_S8_ @1510
    _ZNSt11__alloc_neqISaISt10_List_nodeIN5boost7signals6detail12bound_objectEEELb1EE8_S_do_itERKS6_S9_ @1511
    _ZNSt11char_traitsIwE6assignERwRKw @1512
    _ZNSt11logic_errorC2ERKS_ @1513
    _ZNSt12_Destroy_auxILb1EE9__destroyIPwEEvT_S3_ @1514
    _ZNSt12_Vector_baseIwSaIwEE11_M_allocateEj @1515
    _ZNSt12_Vector_baseIwSaIwEE12_Vector_implC1ERKS0_ @1516
    _ZNSt12_Vector_baseIwSaIwEE12_Vector_implD1Ev @1517
    _ZNSt12_Vector_baseIwSaIwEE13_M_deallocateEPwj @1518
    _ZNSt12_Vector_baseIwSaIwEE19_M_get_Tp_allocatorEv @1519
    _ZNSt12_Vector_baseIwSaIwEEC2EjRKS0_ @1520
    _ZNSt12_Vector_baseIwSaIwEED2Ev @1521
    _ZNSt12__alloc_swapISaISt10_List_nodeIN5boost7signals10connectionEEELb1EE8_S_do_itERS5_S7_ @1522
    _ZNSt12__alloc_swapISaISt10_List_nodeIN5boost7signals6detail12bound_objectEEELb1EE8_S_do_itERS6_S8_ @1523
    _ZNSt12out_of_rangeC2ERKS_ @1524
    _ZNSt13runtime_errorC2ERKS_ @1525
    _ZNSt14_List_iteratorIN5boost7signals10connectionEEC1EPNSt8__detail15_List_node_baseE @1526
    _ZNSt14_List_iteratorIN5boost7signals10connectionEEmmEv @1527
    _ZNSt14_List_iteratorIN5boost7signals10connectionEEppEv @1528
    _ZNSt14_List_iteratorIN5boost7signals6detail12bound_objectEEC1EPNSt8__detail15_List_node_baseE @1529
    _ZNSt14_List_iteratorIN5boost7signals6detail12bound_objectEEmmEv @1530
    _ZNSt14_List_iteratorIN5boost7signals6detail12bound_objectEEppEv @1531
    _ZNSt14_List_iteratorIN5boost7signals6detail20connection_slot_pairEEC1EPNSt8__detail15_List_node_baseE @1532
    _ZNSt14_List_iteratorIN5boost7signals6detail20connection_slot_pairEEC1Ev @1533
    _ZNSt14_List_iteratorIN5boost7signals6detail20connection_slot_pairEEmmEv @1534
    _ZNSt14_List_iteratorIN5boost7signals6detail20connection_slot_pairEEppEi @1535
    _ZNSt14_List_iteratorIN5boost7signals6detail20connection_slot_pairEEppEv @1536
    _ZNSt14__shared_countILN9__gnu_cxx12_Lock_policyE1EEC1I5_TaskSaIS4_EIRFvvEEEESt19_Sp_make_shared_tagPT_RKT0_DpOT1_ @1537
    _ZNSt14__shared_countILN9__gnu_cxx12_Lock_policyE1EED1Ev @1538
    _ZNSt14numeric_limitsIjE3maxEv @1539
    _ZNSt14numeric_limitsIjE3minEv @1540
    _ZNSt14numeric_limitsIxE3maxEv @1541
    _ZNSt14numeric_limitsIxE3minEv @1542
    _ZNSt15_Sp_counted_ptrIPSt6vectorIN5boost4asio2ip20basic_resolver_entryINS3_3tcpEEESaIS6_EELN9__gnu_cxx12_Lock_policyE1EE10_M_destroyEv @1543
    _ZNSt15_Sp_counted_ptrIPSt6vectorIN5boost4asio2ip20basic_resolver_entryINS3_3tcpEEESaIS6_EELN9__gnu_cxx12_Lock_policyE1EE10_M_disposeEv @1544
    _ZNSt15_Sp_counted_ptrIPSt6vectorIN5boost4asio2ip20basic_resolver_entryINS3_3tcpEEESaIS6_EELN9__gnu_cxx12_Lock_policyE1EE14_M_get_deleterERKSt9type_info @1545
    _ZNSt15_Sp_counted_ptrIPSt6vectorIN5boost4asio2ip20basic_resolver_entryINS3_3tcpEEESaIS6_EELN9__gnu_cxx12_Lock_policyE1EED0Ev @1546
    _ZNSt15_Sp_counted_ptrIPSt6vectorIN5boost4asio2ip20basic_resolver_entryINS3_3tcpEEESaIS6_EELN9__gnu_cxx12_Lock_policyE1EED1Ev @1547
    _ZNSt15basic_stringbufIcSt11char_traitsIcESaIcEED1Ev @1548
    _ZNSt15binary_functionIN5boost7signals6detail12stored_groupES3_bEC2Ev @1549
    _ZNSt16_Sp_counted_baseILN9__gnu_cxx12_Lock_policyE1EE10_M_destroyEv @1550
    _ZNSt16_Sp_counted_baseILN9__gnu_cxx12_Lock_policyE1EE15_M_add_ref_lockEv @1551
    _ZNSt16_Sp_counted_baseILN9__gnu_cxx12_Lock_policyE1EE15_M_weak_releaseEv @1552
    _ZNSt16_Sp_counted_baseILN9__gnu_cxx12_Lock_policyE1EED0Ev @1553
    _ZNSt16_Sp_counted_baseILN9__gnu_cxx12_Lock_policyE1EED1Ev @1554
    _ZNSt16_Sp_counted_baseILN9__gnu_cxx12_Lock_policyE1EED2Ev @1555
    _ZNSt16reverse_iteratorISt14_List_iteratorIN5boost7signals10connectionEEEC1ES4_ @1556
    _ZNSt16reverse_iteratorISt14_List_iteratorIN5boost7signals6detail12bound_objectEEEC1ES5_ @1557
    _ZNSt16reverse_iteratorISt20_List_const_iteratorIN5boost7signals10connectionEEEC1ES4_ @1558
    _ZNSt16reverse_iteratorISt20_List_const_iteratorIN5boost7signals6detail12bound_objectEEEC1ES5_ @1559
    _ZNSt17_Rb_tree_iteratorISt4pairIKN5boost7signals6detail12stored_groupESt4listINS3_20connection_slot_pairESaIS7_EEEEC1EPSt13_Rb_tree_nodeISA_E @1560
    _ZNSt17_Rb_tree_iteratorISt4pairIKN5boost7signals6detail12stored_groupESt4listINS3_20connection_slot_pairESaIS7_EEEEC1Ev @1561
    _ZNSt17_Rb_tree_iteratorISt4pairIKN5boost7signals6detail12stored_groupESt4listINS3_20connection_slot_pairESaIS7_EEEEmmEv @1562
    _ZNSt17_Rb_tree_iteratorISt4pairIKN5boost7signals6detail12stored_groupESt4listINS3_20connection_slot_pairESaIS7_EEEEppEi @1563
    _ZNSt17_Rb_tree_iteratorISt4pairIKN5boost7signals6detail12stored_groupESt4listINS3_20connection_slot_pairESaIS7_EEEEppEv @1564
    _ZNSt19_Sp_counted_deleterIP13_PluginHandleSt19_Sp_destroy_inplaceIS0_ESaIS0_ELN9__gnu_cxx12_Lock_policyE1EE10_M_destroyEv @1565
    _ZNSt19_Sp_counted_deleterIP13_PluginHandleSt19_Sp_destroy_inplaceIS0_ESaIS0_ELN9__gnu_cxx12_Lock_policyE1EE10_M_disposeEv @1566
    _ZNSt19_Sp_counted_deleterIP13_PluginHandleSt19_Sp_destroy_inplaceIS0_ESaIS0_ELN9__gnu_cxx12_Lock_policyE1EE14_M_get_deleterERKSt9type_info @1567
    _ZNSt19_Sp_counted_deleterIP13_PluginHandleSt19_Sp_destroy_inplaceIS0_ESaIS0_ELN9__gnu_cxx12_Lock_policyE1EED0Ev @1568
    _ZNSt19_Sp_counted_deleterIP13_PluginHandleSt19_Sp_destroy_inplaceIS0_ESaIS0_ELN9__gnu_cxx12_Lock_policyE1EED1Ev @1569
    _ZNSt19_Sp_counted_deleterIP15binded_functionIRFvvEESt19_Sp_destroy_inplaceIS3_ESaIS3_ELN9__gnu_cxx12_Lock_policyE1EE10_M_destroyEv @1570
    _ZNSt19_Sp_counted_deleterIP15binded_functionIRFvvEESt19_Sp_destroy_inplaceIS3_ESaIS3_ELN9__gnu_cxx12_Lock_policyE1EE10_M_disposeEv @1571
    _ZNSt19_Sp_counted_deleterIP15binded_functionIRFvvEESt19_Sp_destroy_inplaceIS3_ESaIS3_ELN9__gnu_cxx12_Lock_policyE1EE14_M_get_deleterERKSt9type_info @1572
    _ZNSt19_Sp_counted_deleterIP15binded_functionIRFvvEESt19_Sp_destroy_inplaceIS3_ESaIS3_ELN9__gnu_cxx12_Lock_policyE1EED0Ev @1573
    _ZNSt19_Sp_counted_deleterIP15binded_functionIRFvvEESt19_Sp_destroy_inplaceIS3_ESaIS3_ELN9__gnu_cxx12_Lock_policyE1EED1Ev @1574
    _ZNSt19_Sp_counted_deleterIP15binded_functionISt5_BindIFSt7_Mem_fnIM11serverClassFvvEEPS3_EEESt19_Sp_destroy_inplaceISA_ESaISA_ELN9__gnu_cxx12_Lock_policyE1EE10_M_destroyEv @1575
    _ZNSt19_Sp_counted_deleterIP15binded_functionISt5_BindIFSt7_Mem_fnIM11serverClassFvvEEPS3_EEESt19_Sp_destroy_inplaceISA_ESaISA_ELN9__gnu_cxx12_Lock_policyE1EE10_M_disposeEv @1576
    _ZNSt19_Sp_counted_deleterIP15binded_functionISt5_BindIFSt7_Mem_fnIM11serverClassFvvEEPS3_EEESt19_Sp_destroy_inplaceISA_ESaISA_ELN9__gnu_cxx12_Lock_policyE1EE14_M_get_deleterERKSt9type_info @1577
    _ZNSt19_Sp_counted_deleterIP15binded_functionISt5_BindIFSt7_Mem_fnIM11serverClassFvvEEPS3_EEESt19_Sp_destroy_inplaceISA_ESaISA_ELN9__gnu_cxx12_Lock_policyE1EED0Ev @1578
    _ZNSt19_Sp_counted_deleterIP15binded_functionISt5_BindIFSt7_Mem_fnIM11serverClassFvvEEPS3_EEESt19_Sp_destroy_inplaceISA_ESaISA_ELN9__gnu_cxx12_Lock_policyE1EED1Ev @1579
    _ZNSt19_Sp_counted_deleterIP5_TaskSt19_Sp_destroy_inplaceIS0_ESaIS0_ELN9__gnu_cxx12_Lock_policyE1EE10_M_destroyEv @1580
    _ZNSt19_Sp_counted_deleterIP5_TaskSt19_Sp_destroy_inplaceIS0_ESaIS0_ELN9__gnu_cxx12_Lock_policyE1EE10_M_disposeEv @1581
    _ZNSt19_Sp_counted_deleterIP5_TaskSt19_Sp_destroy_inplaceIS0_ESaIS0_ELN9__gnu_cxx12_Lock_policyE1EE14_M_get_deleterERKSt9type_info @1582
    _ZNSt19_Sp_counted_deleterIP5_TaskSt19_Sp_destroy_inplaceIS0_ESaIS0_ELN9__gnu_cxx12_Lock_policyE1EED0Ev @1583
    _ZNSt19_Sp_counted_deleterIP5_TaskSt19_Sp_destroy_inplaceIS0_ESaIS0_ELN9__gnu_cxx12_Lock_policyE1EED1Ev @1584
    _ZNSt19_Sp_counted_deleterIPN5boost4asio19basic_stream_socketINS1_2ip3tcpENS1_21stream_socket_serviceIS4_EEEESt19_Sp_destroy_inplaceIS7_ESaIS7_ELN9__gnu_cxx12_Lock_policyE1EE10_M_destroyEv @1585
    _ZNSt19_Sp_counted_deleterIPN5boost4asio19basic_stream_socketINS1_2ip3tcpENS1_21stream_socket_serviceIS4_EEEESt19_Sp_destroy_inplaceIS7_ESaIS7_ELN9__gnu_cxx12_Lock_policyE1EE10_M_disposeEv @1586
    _ZNSt19_Sp_counted_deleterIPN5boost4asio19basic_stream_socketINS1_2ip3tcpENS1_21stream_socket_serviceIS4_EEEESt19_Sp_destroy_inplaceIS7_ESaIS7_ELN9__gnu_cxx12_Lock_policyE1EE14_M_get_deleterERKSt9type_info @1587
    _ZNSt19_Sp_counted_deleterIPN5boost4asio19basic_stream_socketINS1_2ip3tcpENS1_21stream_socket_serviceIS4_EEEESt19_Sp_destroy_inplaceIS7_ESaIS7_ELN9__gnu_cxx12_Lock_policyE1EED0Ev @1588
    _ZNSt19_Sp_counted_deleterIPN5boost4asio19basic_stream_socketINS1_2ip3tcpENS1_21stream_socket_serviceIS4_EEEESt19_Sp_destroy_inplaceIS7_ESaIS7_ELN9__gnu_cxx12_Lock_policyE1EED1Ev @1589
    _ZNSt19_Sp_counted_deleterIPcSt19_Sp_destroy_inplaceIcESaIcELN9__gnu_cxx12_Lock_policyE1EE10_M_destroyEv @1590
    _ZNSt19_Sp_counted_deleterIPcSt19_Sp_destroy_inplaceIcESaIcELN9__gnu_cxx12_Lock_policyE1EE10_M_disposeEv @1591
    _ZNSt19_Sp_counted_deleterIPcSt19_Sp_destroy_inplaceIcESaIcELN9__gnu_cxx12_Lock_policyE1EE14_M_get_deleterERKSt9type_info @1592
    _ZNSt19_Sp_counted_deleterIPcSt19_Sp_destroy_inplaceIcESaIcELN9__gnu_cxx12_Lock_policyE1EED0Ev @1593
    _ZNSt19_Sp_counted_deleterIPcSt19_Sp_destroy_inplaceIcESaIcELN9__gnu_cxx12_Lock_policyE1EED1Ev @1594
    _ZNSt19_Sp_counted_deleterIPvN5boost4asio6detail10socket_ops12noop_deleterESaIiELN9__gnu_cxx12_Lock_policyE1EE10_M_destroyEv @1595
    _ZNSt19_Sp_counted_deleterIPvN5boost4asio6detail10socket_ops12noop_deleterESaIiELN9__gnu_cxx12_Lock_policyE1EE10_M_disposeEv @1596
    _ZNSt19_Sp_counted_deleterIPvN5boost4asio6detail10socket_ops12noop_deleterESaIiELN9__gnu_cxx12_Lock_policyE1EE14_M_get_deleterERKSt9type_info @1597
    _ZNSt19_Sp_counted_deleterIPvN5boost4asio6detail10socket_ops12noop_deleterESaIiELN9__gnu_cxx12_Lock_policyE1EED0Ev @1598
    _ZNSt19_Sp_counted_deleterIPvN5boost4asio6detail10socket_ops12noop_deleterESaIiELN9__gnu_cxx12_Lock_policyE1EED1Ev @1599
    _ZNSt20_List_const_iteratorIN5boost7signals10connectionEEC1EPKNSt8__detail15_List_node_baseE @1600
    _ZNSt20_List_const_iteratorIN5boost7signals10connectionEEmmEv @1601
    _ZNSt20_List_const_iteratorIN5boost7signals10connectionEEppEv @1602
    _ZNSt20_List_const_iteratorIN5boost7signals6detail12bound_objectEEC1EPKNSt8__detail15_List_node_baseE @1603
    _ZNSt20_List_const_iteratorIN5boost7signals6detail12bound_objectEEmmEv @1604
    _ZNSt20_List_const_iteratorIN5boost7signals6detail12bound_objectEEppEv @1605
    _ZNSt20_List_const_iteratorIN5boost7signals6detail20connection_slot_pairEEC1EPKNSt8__detail15_List_node_baseE @1606
    _ZNSt20_List_const_iteratorIN5boost7signals6detail20connection_slot_pairEEppEv @1607
    _ZNSt22__uninitialized_fill_nILb1EE15__uninit_fill_nIPwjwEEvT_T0_RKT1_ @1608
    _ZNSt23_Rb_tree_const_iteratorISt4pairIKN5boost7signals6detail12stored_groupESt4listINS3_20connection_slot_pairESaIS7_EEEEC1EPKSt13_Rb_tree_nodeISA_E @1609
    _ZNSt23_Rb_tree_const_iteratorISt4pairIKN5boost7signals6detail12stored_groupESt4listINS3_20connection_slot_pairESaIS7_EEEEC1ERKSt17_Rb_tree_iteratorISA_E @1610
    _ZNSt23_Rb_tree_const_iteratorISt4pairIKN5boost7signals6detail12stored_groupESt4listINS3_20connection_slot_pairESaIS7_EEEEmmEv @1611
    _ZNSt23_Rb_tree_const_iteratorISt4pairIKN5boost7signals6detail12stored_groupESt4listINS3_20connection_slot_pairESaIS7_EEEEppEv @1612
    _ZNSt23_Sp_counted_ptr_inplaceI13_PluginHandleSaIS0_ELN9__gnu_cxx12_Lock_policyE1EE10_M_destroyEv @1613
    _ZNSt23_Sp_counted_ptr_inplaceI13_PluginHandleSaIS0_ELN9__gnu_cxx12_Lock_policyE1EE14_M_get_deleterERKSt9type_info @1614
    _ZNSt23_Sp_counted_ptr_inplaceI13_PluginHandleSaIS0_ELN9__gnu_cxx12_Lock_policyE1EED0Ev @1615
    _ZNSt23_Sp_counted_ptr_inplaceI13_PluginHandleSaIS0_ELN9__gnu_cxx12_Lock_policyE1EED1Ev @1616
    _ZNSt23_Sp_counted_ptr_inplaceI15binded_functionIRFvvEESaIS3_ELN9__gnu_cxx12_Lock_policyE1EE10_M_destroyEv @1617
    _ZNSt23_Sp_counted_ptr_inplaceI15binded_functionIRFvvEESaIS3_ELN9__gnu_cxx12_Lock_policyE1EE14_M_get_deleterERKSt9type_info @1618
    _ZNSt23_Sp_counted_ptr_inplaceI15binded_functionIRFvvEESaIS3_ELN9__gnu_cxx12_Lock_policyE1EED0Ev @1619
    _ZNSt23_Sp_counted_ptr_inplaceI15binded_functionIRFvvEESaIS3_ELN9__gnu_cxx12_Lock_policyE1EED1Ev @1620
    _ZNSt23_Sp_counted_ptr_inplaceI15binded_functionISt5_BindIFSt7_Mem_fnIM11serverClassFvvEEPS3_EEESaISA_ELN9__gnu_cxx12_Lock_policyE1EE10_M_destroyEv @1621
    _ZNSt23_Sp_counted_ptr_inplaceI15binded_functionISt5_BindIFSt7_Mem_fnIM11serverClassFvvEEPS3_EEESaISA_ELN9__gnu_cxx12_Lock_policyE1EE14_M_get_deleterERKSt9type_info @1622
    _ZNSt23_Sp_counted_ptr_inplaceI15binded_functionISt5_BindIFSt7_Mem_fnIM11serverClassFvvEEPS3_EEESaISA_ELN9__gnu_cxx12_Lock_policyE1EED0Ev @1623
    _ZNSt23_Sp_counted_ptr_inplaceI15binded_functionISt5_BindIFSt7_Mem_fnIM11serverClassFvvEEPS3_EEESaISA_ELN9__gnu_cxx12_Lock_policyE1EED1Ev @1624
    _ZNSt23_Sp_counted_ptr_inplaceI5_TaskSaIS0_ELN9__gnu_cxx12_Lock_policyE1EE10_M_destroyEv @1625
    _ZNSt23_Sp_counted_ptr_inplaceI5_TaskSaIS0_ELN9__gnu_cxx12_Lock_policyE1EE14_M_get_deleterERKSt9type_info @1626
    _ZNSt23_Sp_counted_ptr_inplaceI5_TaskSaIS0_ELN9__gnu_cxx12_Lock_policyE1EED0Ev @1627
    _ZNSt23_Sp_counted_ptr_inplaceI5_TaskSaIS0_ELN9__gnu_cxx12_Lock_policyE1EED1Ev @1628
    _ZNSt23_Sp_counted_ptr_inplaceIN5boost4asio19basic_stream_socketINS1_2ip3tcpENS1_21stream_socket_serviceIS4_EEEESaIS7_ELN9__gnu_cxx12_Lock_policyE1EE10_M_destroyEv @1629
    _ZNSt23_Sp_counted_ptr_inplaceIN5boost4asio19basic_stream_socketINS1_2ip3tcpENS1_21stream_socket_serviceIS4_EEEESaIS7_ELN9__gnu_cxx12_Lock_policyE1EE14_M_get_deleterERKSt9type_info @1630
    _ZNSt23_Sp_counted_ptr_inplaceIN5boost4asio19basic_stream_socketINS1_2ip3tcpENS1_21stream_socket_serviceIS4_EEEESaIS7_ELN9__gnu_cxx12_Lock_policyE1EED0Ev @1631
    _ZNSt23_Sp_counted_ptr_inplaceIN5boost4asio19basic_stream_socketINS1_2ip3tcpENS1_21stream_socket_serviceIS4_EEEESaIS7_ELN9__gnu_cxx12_Lock_policyE1EED1Ev @1632
    _ZNSt23_Sp_counted_ptr_inplaceIcSaIcELN9__gnu_cxx12_Lock_policyE1EE10_M_destroyEv @1633
    _ZNSt23_Sp_counted_ptr_inplaceIcSaIcELN9__gnu_cxx12_Lock_policyE1EE14_M_get_deleterERKSt9type_info @1634
    _ZNSt23_Sp_counted_ptr_inplaceIcSaIcELN9__gnu_cxx12_Lock_policyE1EED0Ev @1635
    _ZNSt23_Sp_counted_ptr_inplaceIcSaIcELN9__gnu_cxx12_Lock_policyE1EED1Ev @1636
    _ZNSt23enable_shared_from_thisI5_TaskED2Ev @1637
    _ZNSt3mapIN5boost7signals6detail12stored_groupESt4listINS2_20connection_slot_pairESaIS5_EENS0_9function2IbS3_S3_EESaISt4pairIKS3_S7_EEE11lower_boundERSB_ @1638
    _ZNSt3mapIN5boost7signals6detail12stored_groupESt4listINS2_20connection_slot_pairESaIS5_EENS0_9function2IbS3_S3_EESaISt4pairIKS3_S7_EEE3endEv @1639
    _ZNSt3mapIN5boost7signals6detail12stored_groupESt4listINS2_20connection_slot_pairESaIS5_EENS0_9function2IbS3_S3_EESaISt4pairIKS3_S7_EEE4findERSB_ @1640
    _ZNSt3mapIN5boost7signals6detail12stored_groupESt4listINS2_20connection_slot_pairESaIS5_EENS0_9function2IbS3_S3_EESaISt4pairIKS3_S7_EEE5beginEv @1641
    _ZNSt3mapIN5boost7signals6detail12stored_groupESt4listINS2_20connection_slot_pairESaIS5_EENS0_9function2IbS3_S3_EESaISt4pairIKS3_S7_EEE5clearEv @1642
    _ZNSt3mapIN5boost7signals6detail12stored_groupESt4listINS2_20connection_slot_pairESaIS5_EENS0_9function2IbS3_S3_EESaISt4pairIKS3_S7_EEE5eraseESt17_Rb_tree_iteratorISC_E @1643
    _ZNSt3mapIN5boost7signals6detail12stored_groupESt4listINS2_20connection_slot_pairESaIS5_EENS0_9function2IbS3_S3_EESaISt4pairIKS3_S7_EEE6insertERKSC_ @1644
    _ZNSt3mapIN5boost7signals6detail12stored_groupESt4listINS2_20connection_slot_pairESaIS5_EENS0_9function2IbS3_S3_EESaISt4pairIKS3_S7_EEE6insertESt17_Rb_tree_iteratorISC_ERKSC_ @1645
    _ZNSt3mapIN5boost7signals6detail12stored_groupESt4listINS2_20connection_slot_pairESaIS5_EENS0_9function2IbS3_S3_EESaISt4pairIKS3_S7_EEEC1ERKS9_RKSD_ @1646
    _ZNSt3mapIN5boost7signals6detail12stored_groupESt4listINS2_20connection_slot_pairESaIS5_EENS0_9function2IbS3_S3_EESaISt4pairIKS3_S7_EEED1Ev @1647
    _ZNSt3mapIN5boost7signals6detail12stored_groupESt4listINS2_20connection_slot_pairESaIS5_EENS0_9function2IbS3_S3_EESaISt4pairIKS3_S7_EEEixERSB_ @1648
    _ZNSt4listIN5boost7signals10connectionESaIS2_EE10push_frontERKS2_ @1649
    _ZNSt4listIN5boost7signals10connectionESaIS2_EE11_M_transferESt14_List_iteratorIS2_ES6_S6_ @1650
    _ZNSt4listIN5boost7signals10connectionESaIS2_EE14_M_create_nodeERKS2_ @1651
    _ZNSt4listIN5boost7signals10connectionESaIS2_EE14_M_fill_assignEjRKS2_ @1652
    _ZNSt4listIN5boost7signals10connectionESaIS2_EE18_M_fill_initializeEjRKS2_ @1653
    _ZNSt4listIN5boost7signals10connectionESaIS2_EE22_M_initialize_dispatchISt20_List_const_iteratorIS2_EEEvT_S8_St12__false_type @1654
    _ZNSt4listIN5boost7signals10connectionESaIS2_EE25_M_check_equal_allocatorsERS4_ @1655
    _ZNSt4listIN5boost7signals10connectionESaIS2_EE3endEv @1656
    _ZNSt4listIN5boost7signals10connectionESaIS2_EE4backEv @1657
    _ZNSt4listIN5boost7signals10connectionESaIS2_EE4rendEv @1658
    _ZNSt4listIN5boost7signals10connectionESaIS2_EE4sortEv @1659
    _ZNSt4listIN5boost7signals10connectionESaIS2_EE4swapERS4_ @1660
    _ZNSt4listIN5boost7signals10connectionESaIS2_EE5beginEv @1661
    _ZNSt4listIN5boost7signals10connectionESaIS2_EE5clearEv @1662
    _ZNSt4listIN5boost7signals10connectionESaIS2_EE5eraseESt14_List_iteratorIS2_E @1663
    _ZNSt4listIN5boost7signals10connectionESaIS2_EE5eraseESt14_List_iteratorIS2_ES6_ @1664
    _ZNSt4listIN5boost7signals10connectionESaIS2_EE5frontEv @1665
    _ZNSt4listIN5boost7signals10connectionESaIS2_EE5mergeERS4_ @1666
    _ZNSt4listIN5boost7signals10connectionESaIS2_EE6assignEjRKS2_ @1667
    _ZNSt4listIN5boost7signals10connectionESaIS2_EE6insertESt14_List_iteratorIS2_ERKS2_ @1668
    _ZNSt4listIN5boost7signals10connectionESaIS2_EE6insertESt14_List_iteratorIS2_EjRKS2_ @1669
    _ZNSt4listIN5boost7signals10connectionESaIS2_EE6insertISt20_List_const_iteratorIS2_EEEvSt14_List_iteratorIS2_ET_SA_ @1670
    _ZNSt4listIN5boost7signals10connectionESaIS2_EE6rbeginEv @1671
    _ZNSt4listIN5boost7signals10connectionESaIS2_EE6removeERKS2_ @1672
    _ZNSt4listIN5boost7signals10connectionESaIS2_EE6resizeEjS2_ @1673
    _ZNSt4listIN5boost7signals10connectionESaIS2_EE6spliceESt14_List_iteratorIS2_ERS4_ @1674
    _ZNSt4listIN5boost7signals10connectionESaIS2_EE6spliceESt14_List_iteratorIS2_ERS4_S6_ @1675
    _ZNSt4listIN5boost7signals10connectionESaIS2_EE6spliceESt14_List_iteratorIS2_ERS4_S6_S6_ @1676
    _ZNSt4listIN5boost7signals10connectionESaIS2_EE6uniqueEv @1677
    _ZNSt4listIN5boost7signals10connectionESaIS2_EE7reverseEv @1678
    _ZNSt4listIN5boost7signals10connectionESaIS2_EE8_M_eraseESt14_List_iteratorIS2_E @1679
    _ZNSt4listIN5boost7signals10connectionESaIS2_EE8pop_backEv @1680
    _ZNSt4listIN5boost7signals10connectionESaIS2_EE9_M_insertESt14_List_iteratorIS2_ERKS2_ @1681
    _ZNSt4listIN5boost7signals10connectionESaIS2_EE9pop_frontEv @1682
    _ZNSt4listIN5boost7signals10connectionESaIS2_EE9push_backERKS2_ @1683
    _ZNSt4listIN5boost7signals10connectionESaIS2_EEC1ERKS3_ @1684
    _ZNSt4listIN5boost7signals10connectionESaIS2_EEC1ERKS4_ @1685
    _ZNSt4listIN5boost7signals10connectionESaIS2_EEC1EjRKS2_RKS3_ @1686
    _ZNSt4listIN5boost7signals10connectionESaIS2_EEC1Ev @1687
    _ZNSt4listIN5boost7signals10connectionESaIS2_EEC1ISt20_List_const_iteratorIS2_EEET_S8_RKS3_ @1688
    _ZNSt4listIN5boost7signals10connectionESaIS2_EEC2ERKS3_ @1689
    _ZNSt4listIN5boost7signals10connectionESaIS2_EEC2ERKS4_ @1690
    _ZNSt4listIN5boost7signals10connectionESaIS2_EEC2EjRKS2_RKS3_ @1691
    _ZNSt4listIN5boost7signals10connectionESaIS2_EEC2Ev @1692
    _ZNSt4listIN5boost7signals10connectionESaIS2_EED1Ev @1693
    _ZNSt4listIN5boost7signals10connectionESaIS2_EEaSERKS4_ @1694
    _ZNSt4listIN5boost7signals6detail12bound_objectESaIS3_EE10push_frontERKS3_ @1695
    _ZNSt4listIN5boost7signals6detail12bound_objectESaIS3_EE11_M_transferESt14_List_iteratorIS3_ES7_S7_ @1696
    _ZNSt4listIN5boost7signals6detail12bound_objectESaIS3_EE14_M_create_nodeERKS3_ @1697
    _ZNSt4listIN5boost7signals6detail12bound_objectESaIS3_EE14_M_fill_assignEjRKS3_ @1698
    _ZNSt4listIN5boost7signals6detail12bound_objectESaIS3_EE18_M_fill_initializeEjRKS3_ @1699
    _ZNSt4listIN5boost7signals6detail12bound_objectESaIS3_EE22_M_initialize_dispatchISt20_List_const_iteratorIS3_EEEvT_S9_St12__false_type @1700
    _ZNSt4listIN5boost7signals6detail12bound_objectESaIS3_EE25_M_check_equal_allocatorsERS5_ @1701
    _ZNSt4listIN5boost7signals6detail12bound_objectESaIS3_EE3endEv @1702
    _ZNSt4listIN5boost7signals6detail12bound_objectESaIS3_EE4backEv @1703
    _ZNSt4listIN5boost7signals6detail12bound_objectESaIS3_EE4rendEv @1704
    _ZNSt4listIN5boost7signals6detail12bound_objectESaIS3_EE4sortEv @1705
    _ZNSt4listIN5boost7signals6detail12bound_objectESaIS3_EE4swapERS5_ @1706
    _ZNSt4listIN5boost7signals6detail12bound_objectESaIS3_EE5beginEv @1707
    _ZNSt4listIN5boost7signals6detail12bound_objectESaIS3_EE5clearEv @1708
    _ZNSt4listIN5boost7signals6detail12bound_objectESaIS3_EE5eraseESt14_List_iteratorIS3_E @1709
    _ZNSt4listIN5boost7signals6detail12bound_objectESaIS3_EE5eraseESt14_List_iteratorIS3_ES7_ @1710
    _ZNSt4listIN5boost7signals6detail12bound_objectESaIS3_EE5frontEv @1711
    _ZNSt4listIN5boost7signals6detail12bound_objectESaIS3_EE5mergeERS5_ @1712
    _ZNSt4listIN5boost7signals6detail12bound_objectESaIS3_EE6assignEjRKS3_ @1713
    _ZNSt4listIN5boost7signals6detail12bound_objectESaIS3_EE6insertESt14_List_iteratorIS3_ERKS3_ @1714
    _ZNSt4listIN5boost7signals6detail12bound_objectESaIS3_EE6insertESt14_List_iteratorIS3_EjRKS3_ @1715
    _ZNSt4listIN5boost7signals6detail12bound_objectESaIS3_EE6insertISt20_List_const_iteratorIS3_EEEvSt14_List_iteratorIS3_ET_SB_ @1716
    _ZNSt4listIN5boost7signals6detail12bound_objectESaIS3_EE6rbeginEv @1717
    _ZNSt4listIN5boost7signals6detail12bound_objectESaIS3_EE6removeERKS3_ @1718
    _ZNSt4listIN5boost7signals6detail12bound_objectESaIS3_EE6resizeEjS3_ @1719
    _ZNSt4listIN5boost7signals6detail12bound_objectESaIS3_EE6spliceESt14_List_iteratorIS3_ERS5_ @1720
    _ZNSt4listIN5boost7signals6detail12bound_objectESaIS3_EE6spliceESt14_List_iteratorIS3_ERS5_S7_ @1721
    _ZNSt4listIN5boost7signals6detail12bound_objectESaIS3_EE6spliceESt14_List_iteratorIS3_ERS5_S7_S7_ @1722
    _ZNSt4listIN5boost7signals6detail12bound_objectESaIS3_EE6uniqueEv @1723
    _ZNSt4listIN5boost7signals6detail12bound_objectESaIS3_EE7reverseEv @1724
    _ZNSt4listIN5boost7signals6detail12bound_objectESaIS3_EE8_M_eraseESt14_List_iteratorIS3_E @1725
    _ZNSt4listIN5boost7signals6detail12bound_objectESaIS3_EE8pop_backEv @1726
    _ZNSt4listIN5boost7signals6detail12bound_objectESaIS3_EE9_M_insertESt14_List_iteratorIS3_ERKS3_ @1727
    _ZNSt4listIN5boost7signals6detail12bound_objectESaIS3_EE9pop_frontEv @1728
    _ZNSt4listIN5boost7signals6detail12bound_objectESaIS3_EE9push_backERKS3_ @1729
    _ZNSt4listIN5boost7signals6detail12bound_objectESaIS3_EEC1ERKS4_ @1730
    _ZNSt4listIN5boost7signals6detail12bound_objectESaIS3_EEC1ERKS5_ @1731
    _ZNSt4listIN5boost7signals6detail12bound_objectESaIS3_EEC1EjRKS3_RKS4_ @1732
    _ZNSt4listIN5boost7signals6detail12bound_objectESaIS3_EEC1Ev @1733
    _ZNSt4listIN5boost7signals6detail12bound_objectESaIS3_EEC1ISt20_List_const_iteratorIS3_EEET_S9_RKS4_ @1734
    _ZNSt4listIN5boost7signals6detail12bound_objectESaIS3_EEC2ERKS4_ @1735
    _ZNSt4listIN5boost7signals6detail12bound_objectESaIS3_EEC2ERKS5_ @1736
    _ZNSt4listIN5boost7signals6detail12bound_objectESaIS3_EEC2EjRKS3_RKS4_ @1737
    _ZNSt4listIN5boost7signals6detail12bound_objectESaIS3_EEC2Ev @1738
    _ZNSt4listIN5boost7signals6detail12bound_objectESaIS3_EED1Ev @1739
    _ZNSt4listIN5boost7signals6detail12bound_objectESaIS3_EEaSERKS5_ @1740
    _ZNSt4listIN5boost7signals6detail20connection_slot_pairESaIS3_EE10push_frontERKS3_ @1741
    _ZNSt4listIN5boost7signals6detail20connection_slot_pairESaIS3_EE14_M_create_nodeERKS3_ @1742
    _ZNSt4listIN5boost7signals6detail20connection_slot_pairESaIS3_EE22_M_initialize_dispatchISt20_List_const_iteratorIS3_EEEvT_S9_St12__false_type @1743
    _ZNSt4listIN5boost7signals6detail20connection_slot_pairESaIS3_EE3endEv @1744
    _ZNSt4listIN5boost7signals6detail20connection_slot_pairESaIS3_EE5beginEv @1745
    _ZNSt4listIN5boost7signals6detail20connection_slot_pairESaIS3_EE5eraseESt14_List_iteratorIS3_E @1746
    _ZNSt4listIN5boost7signals6detail20connection_slot_pairESaIS3_EE8_M_eraseESt14_List_iteratorIS3_E @1747
    _ZNSt4listIN5boost7signals6detail20connection_slot_pairESaIS3_EE9_M_insertESt14_List_iteratorIS3_ERKS3_ @1748
    _ZNSt4listIN5boost7signals6detail20connection_slot_pairESaIS3_EE9push_backERKS3_ @1749
    _ZNSt4listIN5boost7signals6detail20connection_slot_pairESaIS3_EEC1ERKS5_ @1750
    _ZNSt4listIN5boost7signals6detail20connection_slot_pairESaIS3_EEC1Ev @1751
    _ZNSt4listIN5boost7signals6detail20connection_slot_pairESaIS3_EED1Ev @1752
    _ZNSt4listISsSaISsEED1Ev @1753
    _ZNSt4listISt4pairIjN5boost4asio6detail16reactor_op_queueIjE10operationsEESaIS7_EED1Ev @1754
    _ZNSt4listIbSaIbEEC1IN5boost7signals6detail18slot_call_iteratorINS5_11call_bound2IbE6callerIcSt10shared_ptrINS3_4asio19basic_stream_socketINSB_2ip3tcpENSB_21stream_socket_serviceISE_EEEEENS3_8functionIFbcSI_EEEEENS5_23named_slot_map_iteratorEEEEET_SP_RKS0_ @1755
    _ZNSt4pairIKN5boost7signals6detail12stored_groupESt4listINS2_20connection_slot_pairESaIS6_EEEC1ERKS9_ @1756
    _ZNSt4pairIKN5boost7signals6detail12stored_groupESt4listINS2_20connection_slot_pairESaIS6_EEEC1ERS4_RKS8_ @1757
    _ZNSt4pairIKN5boost7signals6detail12stored_groupESt4listINS2_20connection_slot_pairESaIS6_EEED1Ev @1758
    _ZNSt4pairIKSsSsED1Ev @1759
    _ZNSt4pairISt17_Rb_tree_iteratorIS_IKN5boost7signals6detail12stored_groupESt4listINS3_20connection_slot_pairESaIS7_EEEEbEC1ERKSB_RKb @1760
    _ZNSt5dequeIcSaIcEE13_M_insert_auxIN9__gnu_cxx17__normal_iteratorIPKcSsEEEEvSt15_Deque_iteratorIcRcPcET_SC_j @1761
    _ZNSt5dequeIcSaIcEE13_M_insert_auxIPKcEEvSt15_Deque_iteratorIcRcPcET_S9_j @1762
    _ZNSt5dequeIcSaIcEE17_M_reallocate_mapEjb @1763
    _ZNSt5dequeIcSaIcEE23_M_new_elements_at_backEj @1764
    _ZNSt5dequeIcSaIcEE24_M_new_elements_at_frontEj @1765
    _ZNSt6locale5_Impl19_M_remove_referenceEv @1766
    _ZNSt6localeC1I20windows_file_codecvtEERKS_PT_ @1767
    _ZNSt6vectorIN5boost4asio2ip20basic_resolver_entryINS2_3tcpEEESaIS5_EE13_M_insert_auxIIS5_EEEvN9__gnu_cxx17__normal_iteratorIPS5_S7_EEDpOT_ @1768
    _ZNSt6vectorIN5boost4asio2ip20basic_resolver_entryINS2_3tcpEEESaIS5_EED1Ev @1769
    _ZNSt6vectorISsSaISsEE13_M_insert_auxIISsEEEvN9__gnu_cxx17__normal_iteratorIPSsS1_EEDpOT_ @1770
    _ZNSt6vectorISsSaISsEE7reserveEj @1771
    _ZNSt6vectorISsSaISsEEC1ERKS1_ @1772
    _ZNSt6vectorISsSaISsEED1Ev @1773
    _ZNSt6vectorISt10shared_ptrI5_TaskESaIS2_EE13_M_insert_auxIIRKS2_EEEvN9__gnu_cxx17__normal_iteratorIPS2_S4_EEDpOT_ @1774
    _ZNSt6vectorIwSaIwEE18_M_fill_initializeEjRKw @1775
    _ZNSt6vectorIwSaIwEE3endEv @1776
    _ZNSt6vectorIwSaIwEE5beginEv @1777
    _ZNSt6vectorIwSaIwEE8pop_backEv @1778
    _ZNSt6vectorIwSaIwEEC1EjRKwRKS0_ @1779
    _ZNSt6vectorIwSaIwEED1Ev @1780
    _ZNSt6vectorIwSaIwEEixEj @1781
    _ZNSt8_Rb_treeIN5boost7signals6detail12stored_groupESt4pairIKS3_St4listINS2_20connection_slot_pairESaIS7_EEESt10_Select1stISA_ENS0_9function2IbS3_S3_EESaISA_EE10_M_insert_EPKSt18_Rb_tree_node_baseSJ_RKSA_ @1782
    _ZNSt8_Rb_treeIN5boost7signals6detail12stored_groupESt4pairIKS3_St4listINS2_20connection_slot_pairESaIS7_EEESt10_Select1stISA_ENS0_9function2IbS3_S3_EESaISA_EE11_M_get_nodeEv @1783
    _ZNSt8_Rb_treeIN5boost7signals6detail12stored_groupESt4pairIKS3_St4listINS2_20connection_slot_pairESaIS7_EEESt10_Select1stISA_ENS0_9function2IbS3_S3_EESaISA_EE11_M_leftmostEv @1784
    _ZNSt8_Rb_treeIN5boost7signals6detail12stored_groupESt4pairIKS3_St4listINS2_20connection_slot_pairESaIS7_EEESt10_Select1stISA_ENS0_9function2IbS3_S3_EESaISA_EE11_M_put_nodeEPSt13_Rb_tree_nodeISA_E @1785
    _ZNSt8_Rb_treeIN5boost7signals6detail12stored_groupESt4pairIKS3_St4listINS2_20connection_slot_pairESaIS7_EEESt10_Select1stISA_ENS0_9function2IbS3_S3_EESaISA_EE11lower_boundERS5_ @1786
    _ZNSt8_Rb_treeIN5boost7signals6detail12stored_groupESt4pairIKS3_St4listINS2_20connection_slot_pairESaIS7_EEESt10_Select1stISA_ENS0_9function2IbS3_S3_EESaISA_EE12_M_erase_auxESt23_Rb_tree_const_iteratorISA_E @1787
    _ZNSt8_Rb_treeIN5boost7signals6detail12stored_groupESt4pairIKS3_St4listINS2_20connection_slot_pairESaIS7_EEESt10_Select1stISA_ENS0_9function2IbS3_S3_EESaISA_EE12_M_rightmostEv @1788
    _ZNSt8_Rb_treeIN5boost7signals6detail12stored_groupESt4pairIKS3_St4listINS2_20connection_slot_pairESaIS7_EEESt10_Select1stISA_ENS0_9function2IbS3_S3_EESaISA_EE13_Rb_tree_implISE_Lb0EE13_M_initializeEv @1789
    _ZNSt8_Rb_treeIN5boost7signals6detail12stored_groupESt4pairIKS3_St4listINS2_20connection_slot_pairESaIS7_EEESt10_Select1stISA_ENS0_9function2IbS3_S3_EESaISA_EE13_Rb_tree_implISE_Lb0EEC1ERKSE_RKSaISt13_Rb_tree_nodeISA_EE @1790
    _ZNSt8_Rb_treeIN5boost7signals6detail12stored_groupESt4pairIKS3_St4listINS2_20connection_slot_pairESaIS7_EEESt10_Select1stISA_ENS0_9function2IbS3_S3_EESaISA_EE13_Rb_tree_implISE_Lb0EED1Ev @1791
    _ZNSt8_Rb_treeIN5boost7signals6detail12stored_groupESt4pairIKS3_St4listINS2_20connection_slot_pairESaIS7_EEESt10_Select1stISA_ENS0_9function2IbS3_S3_EESaISA_EE14_M_create_nodeERKSA_ @1792
    _ZNSt8_Rb_treeIN5boost7signals6detail12stored_groupESt4pairIKS3_St4listINS2_20connection_slot_pairESaIS7_EEESt10_Select1stISA_ENS0_9function2IbS3_S3_EESaISA_EE14_M_lower_boundEPSt13_Rb_tree_nodeISA_ESJ_RS5_ @1793
    _ZNSt8_Rb_treeIN5boost7signals6detail12stored_groupESt4pairIKS3_St4listINS2_20connection_slot_pairESaIS7_EEESt10_Select1stISA_ENS0_9function2IbS3_S3_EESaISA_EE15_M_destroy_nodeEPSt13_Rb_tree_nodeISA_E @1794
    _ZNSt8_Rb_treeIN5boost7signals6detail12stored_groupESt4pairIKS3_St4listINS2_20connection_slot_pairESaIS7_EEESt10_Select1stISA_ENS0_9function2IbS3_S3_EESaISA_EE16_M_insert_uniqueERKSA_ @1795
    _ZNSt8_Rb_treeIN5boost7signals6detail12stored_groupESt4pairIKS3_St4listINS2_20connection_slot_pairESaIS7_EEESt10_Select1stISA_ENS0_9function2IbS3_S3_EESaISA_EE17_M_insert_unique_ESt23_Rb_tree_const_iteratorISA_ERKSA_ @1796
    _ZNSt8_Rb_treeIN5boost7signals6detail12stored_groupESt4pairIKS3_St4listINS2_20connection_slot_pairESaIS7_EEESt10_Select1stISA_ENS0_9function2IbS3_S3_EESaISA_EE3endEv @1797
    _ZNSt8_Rb_treeIN5boost7signals6detail12stored_groupESt4pairIKS3_St4listINS2_20connection_slot_pairESaIS7_EEESt10_Select1stISA_ENS0_9function2IbS3_S3_EESaISA_EE4findERS5_ @1798
    _ZNSt8_Rb_treeIN5boost7signals6detail12stored_groupESt4pairIKS3_St4listINS2_20connection_slot_pairESaIS7_EEESt10_Select1stISA_ENS0_9function2IbS3_S3_EESaISA_EE5beginEv @1799
    _ZNSt8_Rb_treeIN5boost7signals6detail12stored_groupESt4pairIKS3_St4listINS2_20connection_slot_pairESaIS7_EEESt10_Select1stISA_ENS0_9function2IbS3_S3_EESaISA_EE5clearEv @1800
    _ZNSt8_Rb_treeIN5boost7signals6detail12stored_groupESt4pairIKS3_St4listINS2_20connection_slot_pairESaIS7_EEESt10_Select1stISA_ENS0_9function2IbS3_S3_EESaISA_EE5eraseESt17_Rb_tree_iteratorISA_E @1801
    _ZNSt8_Rb_treeIN5boost7signals6detail12stored_groupESt4pairIKS3_St4listINS2_20connection_slot_pairESaIS7_EEESt10_Select1stISA_ENS0_9function2IbS3_S3_EESaISA_EE6_M_endEv @1802
    _ZNSt8_Rb_treeIN5boost7signals6detail12stored_groupESt4pairIKS3_St4listINS2_20connection_slot_pairESaIS7_EEESt10_Select1stISA_ENS0_9function2IbS3_S3_EESaISA_EE6_S_keyEPKSt13_Rb_tree_nodeISA_E @1803
    _ZNSt8_Rb_treeIN5boost7signals6detail12stored_groupESt4pairIKS3_St4listINS2_20connection_slot_pairESaIS7_EEESt10_Select1stISA_ENS0_9function2IbS3_S3_EESaISA_EE6_S_keyEPKSt18_Rb_tree_node_base @1804
    _ZNSt8_Rb_treeIN5boost7signals6detail12stored_groupESt4pairIKS3_St4listINS2_20connection_slot_pairESaIS7_EEESt10_Select1stISA_ENS0_9function2IbS3_S3_EESaISA_EE7_M_rootEv @1805
    _ZNSt8_Rb_treeIN5boost7signals6detail12stored_groupESt4pairIKS3_St4listINS2_20connection_slot_pairESaIS7_EEESt10_Select1stISA_ENS0_9function2IbS3_S3_EESaISA_EE7_S_leftEPSt18_Rb_tree_node_base @1806
    _ZNSt8_Rb_treeIN5boost7signals6detail12stored_groupESt4pairIKS3_St4listINS2_20connection_slot_pairESaIS7_EEESt10_Select1stISA_ENS0_9function2IbS3_S3_EESaISA_EE8_M_beginEv @1807
    _ZNSt8_Rb_treeIN5boost7signals6detail12stored_groupESt4pairIKS3_St4listINS2_20connection_slot_pairESaIS7_EEESt10_Select1stISA_ENS0_9function2IbS3_S3_EESaISA_EE8_M_eraseEPSt13_Rb_tree_nodeISA_E @1808
    _ZNSt8_Rb_treeIN5boost7signals6detail12stored_groupESt4pairIKS3_St4listINS2_20connection_slot_pairESaIS7_EEESt10_Select1stISA_ENS0_9function2IbS3_S3_EESaISA_EE8_S_rightEPKSt18_Rb_tree_node_base @1809
    _ZNSt8_Rb_treeIN5boost7signals6detail12stored_groupESt4pairIKS3_St4listINS2_20connection_slot_pairESaIS7_EEESt10_Select1stISA_ENS0_9function2IbS3_S3_EESaISA_EE8_S_rightEPSt18_Rb_tree_node_base @1810
    _ZNSt8_Rb_treeIN5boost7signals6detail12stored_groupESt4pairIKS3_St4listINS2_20connection_slot_pairESaIS7_EEESt10_Select1stISA_ENS0_9function2IbS3_S3_EESaISA_EE8_S_valueEPKSt13_Rb_tree_nodeISA_E @1811
    _ZNSt8_Rb_treeIN5boost7signals6detail12stored_groupESt4pairIKS3_St4listINS2_20connection_slot_pairESaIS7_EEESt10_Select1stISA_ENS0_9function2IbS3_S3_EESaISA_EE8_S_valueEPKSt18_Rb_tree_node_base @1812
    _ZNSt8_Rb_treeIN5boost7signals6detail12stored_groupESt4pairIKS3_St4listINS2_20connection_slot_pairESaIS7_EEESt10_Select1stISA_ENS0_9function2IbS3_S3_EESaISA_EEC1ERKSE_RKSF_ @1813
    _ZNSt8_Rb_treeIN5boost7signals6detail12stored_groupESt4pairIKS3_St4listINS2_20connection_slot_pairESaIS7_EEESt10_Select1stISA_ENS0_9function2IbS3_S3_EESaISA_EED1Ev @1814
    _ZNSt8_Rb_treeISsSt4pairIKSsSsESt10_Select1stIS2_ESt4lessISsESaIS2_EE10_M_insert_IS2_EESt17_Rb_tree_iteratorIS2_EPKSt18_Rb_tree_node_baseSE_OT_ @1815
    _ZNSt8_Rb_treeISsSt4pairIKSsSsESt10_Select1stIS2_ESt4lessISsESaIS2_EE16_M_insert_uniqueIS2_EES0_ISt17_Rb_tree_iteratorIS2_EbEOT_ @1816
    _ZNSt8_Rb_treeISsSt4pairIKSsSsESt10_Select1stIS2_ESt4lessISsESaIS2_EE17_M_insert_unique_IS2_EESt17_Rb_tree_iteratorIS2_ESt23_Rb_tree_const_iteratorIS2_EOT_ @1817
    _ZNSt8_Rb_treeISt10shared_ptrIN5boost4asio19basic_stream_socketINS2_2ip3tcpENS2_21stream_socket_serviceIS5_EEEEES9_St9_IdentityIS9_ESt4lessIS9_ESaIS9_EE10_M_insert_IRKS9_EESt17_Rb_tree_iteratorIS9_EPKSt18_Rb_tree_node_baseSN_OT_ @1818
    _ZNSt8_Rb_treeISt10shared_ptrIN5boost4asio19basic_stream_socketINS2_2ip3tcpENS2_21stream_socket_serviceIS5_EEEEES9_St9_IdentityIS9_ESt4lessIS9_ESaIS9_EE16_M_insert_uniqueIRKS9_EESt4pairISt17_Rb_tree_iteratorIS9_EbEOT_ @1819
    _ZNSt8_Rb_treeISt10shared_ptrIN5boost4asio19basic_stream_socketINS2_2ip3tcpENS2_21stream_socket_serviceIS5_EEEEES9_St9_IdentityIS9_ESt4lessIS9_ESaIS9_EE8_M_eraseEPSt13_Rb_tree_nodeIS9_E @1820
    _ZNSt8auto_ptrIN5boost7signals6detail23named_slot_map_iteratorEE7releaseEv @1821
    _ZNSt8auto_ptrIN5boost7signals6detail23named_slot_map_iteratorEEC1EPS3_ @1822
    _ZNSt8auto_ptrIN5boost7signals6detail23named_slot_map_iteratorEED1Ev @1823
    _ZNSt8iteratorISt26bidirectional_iterator_tagN5boost7signals10connectionEiPKS3_RS4_EC2Ev @1824
    _ZNSt8iteratorISt26bidirectional_iterator_tagN5boost7signals10connectionEiPS3_RS3_EC2Ev @1825
    _ZNSt8iteratorISt26bidirectional_iterator_tagN5boost7signals6detail12bound_objectEiPKS4_RS5_EC2Ev @1826
    _ZNSt8iteratorISt26bidirectional_iterator_tagN5boost7signals6detail12bound_objectEiPS4_RS4_EC2Ev @1827
    _ZNSt8weak_ptrIvED1Ev @1828
    _ZNSt9bad_allocC1Ev @1829
    _ZNSt9bad_allocC2ERKS_ @1830
    _ZNSt9exceptionC2ERKS_ @1831
    _ZNSt9exceptionC2Ev @1832
    _ZSt10__distanceIN9__gnu_cxx17__normal_iteratorIPwSt6vectorIwSaIwEEEEENSt15iterator_traitsIT_E15difference_typeES8_S8_St26random_access_iterator_tag @1833
    _ZSt10__distanceIPKwENSt15iterator_traitsIT_E15difference_typeES3_S3_St26random_access_iterator_tag @1834
    _ZSt10__distanceISt20_List_const_iteratorIN5boost7signals10connectionEEENSt15iterator_traitsIT_E15difference_typeES6_S6_St18input_iterator_tag @1835
    _ZSt10__distanceISt20_List_const_iteratorIN5boost7signals6detail12bound_objectEEENSt15iterator_traitsIT_E15difference_typeES7_S7_St18input_iterator_tag @1836
    _ZSt10__fill_n_aIPwjwEN9__gnu_cxx11__enable_ifIXsrSt11__is_scalarIT1_E7__valueET_E6__typeES6_T0_RKS4_ @1837
    _ZSt11__addressofIKN5boost7signals10connectionEEPT_RS4_ @1838
    _ZSt11__addressofIKN5boost7signals6detail12bound_objectEEPT_RS5_ @1839
    _ZSt11__addressofIKSt4pairIKN5boost7signals6detail12stored_groupESt4listINS3_20connection_slot_pairESaIS7_EEEEPT_RSC_ @1840
    _ZSt11__addressofIN5boost7signals10connectionEEPT_RS3_ @1841
    _ZSt11__addressofIN5boost7signals6detail12bound_objectEEPT_RS4_ @1842
    _ZSt11__addressofIN5boost7signals6detail20connection_slot_pairEEPT_RS4_ @1843
    _ZSt11__addressofISt4pairIKN5boost7signals6detail12stored_groupESt4listINS3_20connection_slot_pairESaIS7_EEEEPT_RSB_ @1844
    _ZSt11make_sharedI5_TaskIRFvvEEESt10shared_ptrIT_EDpOT0_ @1845
    _ZSt12__niter_baseIPwENSt11_Niter_baseIT_E13iterator_typeES2_ @1846
    _ZSt13move_backwardIcESt15_Deque_iteratorIT_RS1_PS1_ES0_IS1_RKS1_PS5_ES8_S4_ @1847
    _ZSt15allocate_sharedIcSaIcEIiEESt10shared_ptrIT_ERKT0_DpOT1_ @1848
    _ZSt19__iterator_categoryIN9__gnu_cxx17__normal_iteratorIPwSt6vectorIwSaIwEEEEENSt15iterator_traitsIT_E17iterator_categoryERKS8_ @1849
    _ZSt19__iterator_categoryIPKwENSt15iterator_traitsIT_E17iterator_categoryERKS3_ @1850
    _ZSt19__iterator_categoryISt20_List_const_iteratorIN5boost7signals10connectionEEENSt15iterator_traitsIT_E17iterator_categoryERKS6_ @1851
    _ZSt19__iterator_categoryISt20_List_const_iteratorIN5boost7signals6detail12bound_objectEEENSt15iterator_traitsIT_E17iterator_categoryERKS7_ @1852
    _ZSt20__throw_bad_weak_ptrv @1853
    _ZSt20uninitialized_fill_nIPwjwEvT_T0_RKT1_ @1854
    _ZSt22__uninitialized_move_aISt15_Deque_iteratorIcRcPcES3_SaIcEET0_T_S6_S5_RT1_ @1855
    _ZSt24__uninitialized_fill_n_aIPwjwwEvT_T0_RKT1_RSaIT2_E @1856
    _ZSt4moveIcESt15_Deque_iteratorIT_RS1_PS1_ES0_IS1_RKS1_PS5_ES8_S4_ @1857
    _ZSt4swapIPN5boost11filesystem316filesystem_error5m_impEEvRT_S6_ @1858
    _ZSt4swapIPN5boost11filesystem36detail11dir_itr_impEEvRT_S6_ @1859
    _ZSt4swapIPN5boost6detail20tss_cleanup_functionEEvRT_S5_ @1860
    _ZSt4swapIPN5boost7signals6detail16basic_connectionEEvRT_S6_ @1861
    _ZSt4swapIPN5boost7signals6detail16signal_base_implEEvRT_S6_ @1862
    _ZSt4swapIbEvRT_S1_ @1863
    _ZSt6fill_nIPwjwET_S1_T0_RKT1_ @1864
    _ZSt7find_ifIN5boost7signals6detail23named_slot_map_iteratorENS2_11is_callableEET_S5_S5_T0_ @1865
    _ZSt7replaceIN9__gnu_cxx17__normal_iteratorIPwSbIwSt11char_traitsIwESaIwEEEEwEvT_S8_RKT0_SB_ @1866
    _ZSt8_DestroyIPwEvT_S1_ @1867
    _ZSt8_DestroyIPwwEvT_S1_RSaIT0_E @1868
    _ZSt8distanceIN9__gnu_cxx17__normal_iteratorIPwSt6vectorIwSaIwEEEEENSt15iterator_traitsIT_E15difference_typeES8_S8_ @1869
    _ZSt8distanceIPKwENSt15iterator_traitsIT_E15difference_typeES3_S3_ @1870
    _ZSt8distanceISt20_List_const_iteratorIN5boost7signals10connectionEEENSt15iterator_traitsIT_E15difference_typeES6_S6_ @1871
    _ZSt8distanceISt20_List_const_iteratorIN5boost7signals6detail12bound_objectEEENSt15iterator_traitsIT_E15difference_typeES7_S7_ @1872
    _ZSteqIwSt11char_traitsIwESaIwEEbRKSbIT_T0_T1_EPKS3_ @1873
    _ZTCN5boost4asio21basic_socket_iostreamINS0_2ip3tcpENS0_21stream_socket_serviceIS3_EENS_10posix_time5ptimeENS0_11time_traitsIS7_EENS0_22deadline_timer_serviceIS7_S9_EEEE0_Sd @1874 DATA
    _ZTCN5boost4asio21basic_socket_iostreamINS0_2ip3tcpENS0_21stream_socket_serviceIS3_EENS_10posix_time5ptimeENS0_11time_traitsIS7_EENS0_22deadline_timer_serviceIS7_S9_EEEE0_Si @1875 DATA
    _ZTCN5boost4asio21basic_socket_iostreamINS0_2ip3tcpENS0_21stream_socket_serviceIS3_EENS_10posix_time5ptimeENS0_11time_traitsIS7_EENS0_22deadline_timer_serviceIS7_S9_EEEE8_So @1876 DATA
    _ZTI11PluginNoLib @1877 DATA
    _ZTI12chainBreaker @1878 DATA
    _ZTI13PluginLibFail @1879 DATA
    _ZTI13bad_type_name @1880 DATA
    _ZTI15Combine_ResultsISt4listIbSaIbEEE @1881 DATA
    _ZTI15PluginInterface @1882 DATA
    _ZTI15PluginNotLoaded @1883 DATA
    _ZTI15binded_functionIRFvvEE @1884 DATA
    _ZTI15binded_functionISt5_BindIFSt7_Mem_fnIM11serverClassFvvEEPS2_EEE @1885 DATA
    _ZTI15boost_exception @1886 DATA
    _ZTI18PluginNoInstantate @1887 DATA
    _ZTI19AftershockException @1888 DATA
    _ZTI20binded_function_base @1889 DATA
    _ZTI20windows_file_codecvt @1890 DATA
    _ZTI26AftershockRuntimeException @1891 DATA
    _ZTIN5boost10last_valueIvEE @1892 DATA
    _ZTIN5boost11filesystem316filesystem_errorE @1893 DATA
    _ZTIN5boost12noncopyable_11noncopyableE @1894 DATA
    _ZTIN5boost16bad_lexical_castE @1895 DATA
    _ZTIN5boost16base_from_memberINS_4asio10io_serviceELi0EEE @1896 DATA
    _ZTIN5boost16base_from_memberINS_4asio22basic_socket_streambufINS1_2ip3tcpENS1_21stream_socket_serviceIS4_EENS_10posix_time5ptimeENS1_11time_traitsIS8_EENS1_22deadline_timer_serviceIS8_SA_EEEELi0EEE @1897 DATA
    _ZTIN5boost16exception_detail10bad_alloc_E @1898 DATA
    _ZTIN5boost16exception_detail10clone_baseE @1899 DATA
    _ZTIN5boost16exception_detail10clone_implINS0_10bad_alloc_EEE @1900 DATA
    _ZTIN5boost16exception_detail10clone_implINS0_14bad_exception_EEE @1901 DATA
    _ZTIN5boost16exception_detail10clone_implINS0_19error_info_injectorINS_16bad_lexical_castEEEEE @1902 DATA
    _ZTIN5boost16exception_detail10clone_implINS0_19error_info_injectorINS_17bad_function_callEEEEE @1903 DATA
    _ZTIN5boost16exception_detail10clone_implINS0_19error_info_injectorINS_21thread_resource_errorEEEEE @1904 DATA
    _ZTIN5boost16exception_detail10clone_implINS0_19error_info_injectorINS_6system12system_errorEEEEE @1905 DATA
    _ZTIN5boost16exception_detail10clone_implINS0_19error_info_injectorINS_9gregorian11bad_weekdayEEEEE @1906 DATA
    _ZTIN5boost16exception_detail10clone_implINS0_19error_info_injectorINS_9gregorian15bad_day_of_yearEEEEE @1907 DATA
    _ZTIN5boost16exception_detail10clone_implINS0_19error_info_injectorINS_9gregorian16bad_day_of_monthEEEEE @1908 DATA
    _ZTIN5boost16exception_detail10clone_implINS0_19error_info_injectorINS_9gregorian8bad_yearEEEEE @1909 DATA
    _ZTIN5boost16exception_detail10clone_implINS0_19error_info_injectorINS_9gregorian9bad_monthEEEEE @1910 DATA
    _ZTIN5boost16exception_detail10clone_implINS0_19error_info_injectorISt12out_of_rangeEEEE @1911 DATA
    _ZTIN5boost16exception_detail10clone_implINS0_19error_info_injectorISt13runtime_errorEEEE @1912 DATA
    _ZTIN5boost16exception_detail10clone_implINS0_19error_info_injectorISt9bad_allocEEEE @1913 DATA
    _ZTIN5boost16exception_detail14bad_exception_E @1914 DATA
    _ZTIN5boost16exception_detail19error_info_injectorINS_16bad_lexical_castEEE @1915 DATA
    _ZTIN5boost16exception_detail19error_info_injectorINS_17bad_function_callEEE @1916 DATA
    _ZTIN5boost16exception_detail19error_info_injectorINS_21thread_resource_errorEEE @1917 DATA
    _ZTIN5boost16exception_detail19error_info_injectorINS_6system12system_errorEEE @1918 DATA
    _ZTIN5boost16exception_detail19error_info_injectorINS_9gregorian11bad_weekdayEEE @1919 DATA
    _ZTIN5boost16exception_detail19error_info_injectorINS_9gregorian15bad_day_of_yearEEE @1920 DATA
    _ZTIN5boost16exception_detail19error_info_injectorINS_9gregorian16bad_day_of_monthEEE @1921 DATA
    _ZTIN5boost16exception_detail19error_info_injectorINS_9gregorian8bad_yearEEE @1922 DATA
    _ZTIN5boost16exception_detail19error_info_injectorINS_9gregorian9bad_monthEEE @1923 DATA
    _ZTIN5boost16exception_detail19error_info_injectorISt12out_of_rangeEE @1924 DATA
    _ZTIN5boost16exception_detail19error_info_injectorISt13runtime_errorEE @1925 DATA
    _ZTIN5boost16exception_detail19error_info_injectorISt9bad_allocEE @1926 DATA
    _ZTIN5boost16thread_exceptionE @1927 DATA
    _ZTIN5boost17bad_function_callE @1928 DATA
    _ZTIN5boost18thread_interruptedE @1929 DATA
    _ZTIN5boost21thread_resource_errorE @1930 DATA
    _ZTIN5boost3any11placeholderE @1931 DATA
    _ZTIN5boost3any6holderI15Combine_ResultsISt4listIbSaIbEEEEE @1932 DATA
    _ZTIN5boost3any6holderINS_10last_valueIvEEEE @1933 DATA
    _ZTIN5boost4asio10io_service7serviceE @1934 DATA
    _ZTIN5boost4asio11socket_baseE @1935 DATA
    _ZTIN5boost4asio12basic_socketINS0_2ip3tcpENS0_21stream_socket_serviceIS3_EEEE @1936 DATA
    _ZTIN5boost4asio15basic_io_objectINS0_21stream_socket_serviceINS0_2ip3tcpEEELb1EEE @1937 DATA
    _ZTIN5boost4asio19basic_stream_socketINS0_2ip3tcpENS0_21stream_socket_serviceIS3_EEEE @1938 DATA
    _ZTIN5boost4asio21basic_socket_iostreamINS0_2ip3tcpENS0_21stream_socket_serviceIS3_EENS_10posix_time5ptimeENS0_11time_traitsIS7_EENS0_22deadline_timer_serviceIS7_S9_EEEE @1939 DATA
    _ZTIN5boost4asio21stream_socket_serviceINS0_2ip3tcpEEE @1940 DATA
    _ZTIN5boost4asio22basic_socket_streambufINS0_2ip3tcpENS0_21stream_socket_serviceIS3_EENS_10posix_time5ptimeENS0_11time_traitsIS7_EENS0_22deadline_timer_serviceIS7_S9_EEEE @1941 DATA
    _ZTIN5boost4asio23socket_acceptor_serviceINS0_2ip3tcpEEE @1942 DATA
    _ZTIN5boost4asio2ip16resolver_serviceINS1_3tcpEEE @1943 DATA
    _ZTIN5boost4asio5error6detail13misc_categoryE @1944 DATA
    _ZTIN5boost4asio6detail10socket_ops12noop_deleterE @1945 DATA
    _ZTIN5boost4asio6detail10win_thread4funcINS1_21resolver_service_base22work_io_service_runnerEEE @1946 DATA
    _ZTIN5boost4asio6detail10win_thread4funcINS1_7binder1IPFvPNS1_14select_reactorEES6_EEEE @1947 DATA
    _ZTIN5boost4asio6detail10win_thread9func_baseE @1948 DATA
    _ZTIN5boost4asio6detail12service_baseINS0_21stream_socket_serviceINS0_2ip3tcpEEEEE @1949 DATA
    _ZTIN5boost4asio6detail12service_baseINS0_23socket_acceptor_serviceINS0_2ip3tcpEEEEE @1950 DATA
    _ZTIN5boost4asio6detail12service_baseINS0_2ip16resolver_serviceINS3_3tcpEEEEE @1951 DATA
    _ZTIN5boost4asio6detail12service_baseINS1_14select_reactorEEE @1952 DATA
    _ZTIN5boost4asio6detail12service_baseINS1_19win_iocp_io_serviceEEE @1953 DATA
    _ZTIN5boost4asio6detail14select_reactorE @1954 DATA
    _ZTIN5boost4asio6detail14typeid_wrapperINS0_21stream_socket_serviceINS0_2ip3tcpEEEEE @1955 DATA
    _ZTIN5boost4asio6detail14typeid_wrapperINS0_23socket_acceptor_serviceINS0_2ip3tcpEEEEE @1956 DATA
    _ZTIN5boost4asio6detail14typeid_wrapperINS0_2ip16resolver_serviceINS3_3tcpEEEEE @1957 DATA
    _ZTIN5boost4asio6detail14typeid_wrapperINS1_14select_reactorEEE @1958 DATA
    _ZTIN5boost4asio6detail14typeid_wrapperINS1_19win_iocp_io_serviceEEE @1959 DATA
    _ZTIN5boost4asio6detail19win_iocp_io_serviceE @1960 DATA
    _ZTIN5boost6detail11thread_dataINS_3_bi6bind_tIvPFVvR10ServerInfoENS2_5list1INS2_5valueISt17reference_wrapperIS5_EEEEEEEEE @1961 DATA
    _ZTIN5boost6detail15sp_counted_baseE @1962 DATA
    _ZTIN5boost6detail16stl_buf_unlockerISt15basic_stringbufIcSt11char_traitsIcESaIcEEcEE @1963 DATA
    _ZTIN5boost6detail16thread_data_baseE @1964 DATA
    _ZTIN5boost6detail17sp_counted_impl_pINS_11filesystem316filesystem_error5m_impEEE @1965 DATA
    _ZTIN5boost6detail17sp_counted_impl_pINS_11filesystem36detail11dir_itr_impEEE @1966 DATA
    _ZTIN5boost6detail17sp_counted_impl_pINS_16exception_detail10clone_implINS2_10bad_alloc_EEEEE @1967 DATA
    _ZTIN5boost6detail17sp_counted_impl_pINS_16exception_detail10clone_implINS2_14bad_exception_EEEEE @1968 DATA
    _ZTIN5boost6detail17sp_counted_impl_pINS_7signals6detail16basic_connectionEEE @1969 DATA
    _ZTIN5boost6detail17sp_counted_impl_pINS_7signals6detail16signal_base_implEEE @1970 DATA
    _ZTIN5boost6system10error_codeE @1971 DATA
    _ZTIN5boost6system12system_errorE @1972 DATA
    _ZTIN5boost6system14error_categoryE @1973 DATA
    _ZTIN5boost7signals6detail20group_bridge_compareISt4lessIiEiEE @1974 DATA
    _ZTIN5boost9date_time10date_facetINS_9gregorian4dateEcSt19ostreambuf_iteratorIcSt11char_traitsIcEEEE @1975 DATA
    _ZTIN5boost9date_time10time_facetINS_10posix_time5ptimeEcSt19ostreambuf_iteratorIcSt11char_traitsIcEEEE @1976 DATA
    _ZTIN5boost9exceptionE @1977 DATA
    _ZTIN5boost9gregorian11bad_weekdayE @1978 DATA
    _ZTIN5boost9gregorian15bad_day_of_yearE @1979 DATA
    _ZTIN5boost9gregorian16bad_day_of_monthE @1980 DATA
    _ZTIN5boost9gregorian8bad_yearE @1981 DATA
    _ZTIN5boost9gregorian9bad_monthE @1982 DATA
    _ZTIN9__gnu_cxx24__concurrence_lock_errorE @1983 DATA
    _ZTIN9__gnu_cxx26__concurrence_unlock_errorE @1984 DATA
    _ZTIN9__gnu_cxx7__mutexE @1985 DATA
    _ZTINSt6locale5facetE @1986 DATA
    _ZTIPN5boost4asio19basic_stream_socketINS0_2ip3tcpENS0_21stream_socket_serviceIS3_EEEE @1987 DATA
    _ZTISs @1988 DATA
    _ZTISt11_Mutex_baseILN9__gnu_cxx12_Lock_policyE1EE @1989 DATA
    _ZTISt11logic_error @1990 DATA
    _ZTISt12bad_weak_ptr @1991 DATA
    _ZTISt12codecvt_base @1992 DATA
    _ZTISt12out_of_range @1993 DATA
    _ZTISt13bad_exception @1994 DATA
    _ZTISt13runtime_error @1995 DATA
    _ZTISt15_Sp_counted_ptrIPSt6vectorIN5boost4asio2ip20basic_resolver_entryINS3_3tcpEEESaIS6_EELN9__gnu_cxx12_Lock_policyE1EE @1996 DATA
    _ZTISt16_Sp_counted_baseILN9__gnu_cxx12_Lock_policyE1EE @1997 DATA
    _ZTISt19_Sp_counted_deleterIP13_PluginHandleSt19_Sp_destroy_inplaceIS0_ESaIS0_ELN9__gnu_cxx12_Lock_policyE1EE @1998 DATA
    _ZTISt19_Sp_counted_deleterIP15binded_functionIRFvvEESt19_Sp_destroy_inplaceIS3_ESaIS3_ELN9__gnu_cxx12_Lock_policyE1EE @1999 DATA
    _ZTISt19_Sp_counted_deleterIP15binded_functionISt5_BindIFSt7_Mem_fnIM11serverClassFvvEEPS3_EEESt19_Sp_destroy_inplaceISA_ESaISA_ELN9__gnu_cxx12_Lock_policyE1EE @2000 DATA
    _ZTISt19_Sp_counted_deleterIP5_TaskSt19_Sp_destroy_inplaceIS0_ESaIS0_ELN9__gnu_cxx12_Lock_policyE1EE @2001 DATA
    _ZTISt19_Sp_counted_deleterIPN5boost4asio19basic_stream_socketINS1_2ip3tcpENS1_21stream_socket_serviceIS4_EEEESt19_Sp_destroy_inplaceIS7_ESaIS7_ELN9__gnu_cxx12_Lock_policyE1EE @2002 DATA
    _ZTISt19_Sp_counted_deleterIPcSt19_Sp_destroy_inplaceIcESaIcELN9__gnu_cxx12_Lock_policyE1EE @2003 DATA
    _ZTISt19_Sp_counted_deleterIPvN5boost4asio6detail10socket_ops12noop_deleterESaIiELN9__gnu_cxx12_Lock_policyE1EE @2004 DATA
    _ZTISt19_Sp_destroy_inplaceI13_PluginHandleE @2005 DATA
    _ZTISt19_Sp_destroy_inplaceI15binded_functionIRFvvEEE @2006 DATA
    _ZTISt19_Sp_destroy_inplaceI15binded_functionISt5_BindIFSt7_Mem_fnIM11serverClassFvvEEPS3_EEEE @2007 DATA
    _ZTISt19_Sp_destroy_inplaceI5_TaskE @2008 DATA
    _ZTISt19_Sp_destroy_inplaceIN5boost4asio19basic_stream_socketINS1_2ip3tcpENS1_21stream_socket_serviceIS4_EEEEE @2009 DATA
    _ZTISt19_Sp_destroy_inplaceIcE @2010 DATA
    _ZTISt19_Sp_make_shared_tag @2011 DATA
    _ZTISt23_Sp_counted_ptr_inplaceI13_PluginHandleSaIS0_ELN9__gnu_cxx12_Lock_policyE1EE @2012 DATA
    _ZTISt23_Sp_counted_ptr_inplaceI15binded_functionIRFvvEESaIS3_ELN9__gnu_cxx12_Lock_policyE1EE @2013 DATA
    _ZTISt23_Sp_counted_ptr_inplaceI15binded_functionISt5_BindIFSt7_Mem_fnIM11serverClassFvvEEPS3_EEESaISA_ELN9__gnu_cxx12_Lock_policyE1EE @2014 DATA
    _ZTISt23_Sp_counted_ptr_inplaceI5_TaskSaIS0_ELN9__gnu_cxx12_Lock_policyE1EE @2015 DATA
    _ZTISt23_Sp_counted_ptr_inplaceIN5boost4asio19basic_stream_socketINS1_2ip3tcpENS1_21stream_socket_serviceIS4_EEEESaIS7_ELN9__gnu_cxx12_Lock_policyE1EE @2016 DATA
    _ZTISt23_Sp_counted_ptr_inplaceIcSaIcELN9__gnu_cxx12_Lock_policyE1EE @2017 DATA
    _ZTISt23__codecvt_abstract_baseIwciE @2018 DATA
    _ZTISt7codecvtIwciE @2019 DATA
    _ZTISt8bad_cast @2020 DATA
    _ZTISt9bad_alloc @2021 DATA
    _ZTISt9exception @2022 DATA
    _ZTS11PluginNoLib @2023 DATA
    _ZTS12chainBreaker @2024 DATA
    _ZTS13PluginLibFail @2025 DATA
    _ZTS13bad_type_name @2026 DATA
    _ZTS15Combine_ResultsISt4listIbSaIbEEE @2027 DATA
    _ZTS15PluginInterface @2028 DATA
    _ZTS15PluginNotLoaded @2029 DATA
    _ZTS15binded_functionIRFvvEE @2030 DATA
    _ZTS15binded_functionISt5_BindIFSt7_Mem_fnIM11serverClassFvvEEPS2_EEE @2031 DATA
    _ZTS15boost_exception @2032 DATA
    _ZTS18PluginNoInstantate @2033 DATA
    _ZTS19AftershockException @2034 DATA
    _ZTS20binded_function_base @2035 DATA
    _ZTS20windows_file_codecvt @2036 DATA
    _ZTS26AftershockRuntimeException @2037 DATA
    _ZTSN5boost10last_valueIvEE @2038 DATA
    _ZTSN5boost11filesystem316filesystem_errorE @2039 DATA
    _ZTSN5boost12noncopyable_11noncopyableE @2040 DATA
    _ZTSN5boost16bad_lexical_castE @2041 DATA
    _ZTSN5boost16base_from_memberINS_4asio10io_serviceELi0EEE @2042 DATA
    _ZTSN5boost16base_from_memberINS_4asio22basic_socket_streambufINS1_2ip3tcpENS1_21stream_socket_serviceIS4_EENS_10posix_time5ptimeENS1_11time_traitsIS8_EENS1_22deadline_timer_serviceIS8_SA_EEEELi0EEE @2043 DATA
    _ZTSN5boost16exception_detail10bad_alloc_E @2044 DATA
    _ZTSN5boost16exception_detail10clone_baseE @2045 DATA
    _ZTSN5boost16exception_detail10clone_implINS0_10bad_alloc_EEE @2046 DATA
    _ZTSN5boost16exception_detail10clone_implINS0_14bad_exception_EEE @2047 DATA
    _ZTSN5boost16exception_detail10clone_implINS0_19error_info_injectorINS_16bad_lexical_castEEEEE @2048 DATA
    _ZTSN5boost16exception_detail10clone_implINS0_19error_info_injectorINS_17bad_function_callEEEEE @2049 DATA
    _ZTSN5boost16exception_detail10clone_implINS0_19error_info_injectorINS_21thread_resource_errorEEEEE @2050 DATA
    _ZTSN5boost16exception_detail10clone_implINS0_19error_info_injectorINS_6system12system_errorEEEEE @2051 DATA
    _ZTSN5boost16exception_detail10clone_implINS0_19error_info_injectorINS_9gregorian11bad_weekdayEEEEE @2052 DATA
    _ZTSN5boost16exception_detail10clone_implINS0_19error_info_injectorINS_9gregorian15bad_day_of_yearEEEEE @2053 DATA
    _ZTSN5boost16exception_detail10clone_implINS0_19error_info_injectorINS_9gregorian16bad_day_of_monthEEEEE @2054 DATA
    _ZTSN5boost16exception_detail10clone_implINS0_19error_info_injectorINS_9gregorian8bad_yearEEEEE @2055 DATA
    _ZTSN5boost16exception_detail10clone_implINS0_19error_info_injectorINS_9gregorian9bad_monthEEEEE @2056 DATA
    _ZTSN5boost16exception_detail10clone_implINS0_19error_info_injectorISt12out_of_rangeEEEE @2057 DATA
    _ZTSN5boost16exception_detail10clone_implINS0_19error_info_injectorISt13runtime_errorEEEE @2058 DATA
    _ZTSN5boost16exception_detail10clone_implINS0_19error_info_injectorISt9bad_allocEEEE @2059 DATA
    _ZTSN5boost16exception_detail14bad_exception_E @2060 DATA
    _ZTSN5boost16exception_detail19error_info_injectorINS_16bad_lexical_castEEE @2061 DATA
    _ZTSN5boost16exception_detail19error_info_injectorINS_17bad_function_callEEE @2062 DATA
    _ZTSN5boost16exception_detail19error_info_injectorINS_21thread_resource_errorEEE @2063 DATA
    _ZTSN5boost16exception_detail19error_info_injectorINS_6system12system_errorEEE @2064 DATA
    _ZTSN5boost16exception_detail19error_info_injectorINS_9gregorian11bad_weekdayEEE @2065 DATA
    _ZTSN5boost16exception_detail19error_info_injectorINS_9gregorian15bad_day_of_yearEEE @2066 DATA
    _ZTSN5boost16exception_detail19error_info_injectorINS_9gregorian16bad_day_of_monthEEE @2067 DATA
    _ZTSN5boost16exception_detail19error_info_injectorINS_9gregorian8bad_yearEEE @2068 DATA
    _ZTSN5boost16exception_detail19error_info_injectorINS_9gregorian9bad_monthEEE @2069 DATA
    _ZTSN5boost16exception_detail19error_info_injectorISt12out_of_rangeEE @2070 DATA
    _ZTSN5boost16exception_detail19error_info_injectorISt13runtime_errorEE @2071 DATA
    _ZTSN5boost16exception_detail19error_info_injectorISt9bad_allocEE @2072 DATA
    _ZTSN5boost16thread_exceptionE @2073 DATA
    _ZTSN5boost17bad_function_callE @2074 DATA
    _ZTSN5boost18thread_interruptedE @2075 DATA
    _ZTSN5boost21thread_resource_errorE @2076 DATA
    _ZTSN5boost3any11placeholderE @2077 DATA
    _ZTSN5boost3any6holderI15Combine_ResultsISt4listIbSaIbEEEEE @2078 DATA
    _ZTSN5boost3any6holderINS_10last_valueIvEEEE @2079 DATA
    _ZTSN5boost4asio10io_service7serviceE @2080 DATA
    _ZTSN5boost4asio11socket_baseE @2081 DATA
    _ZTSN5boost4asio12basic_socketINS0_2ip3tcpENS0_21stream_socket_serviceIS3_EEEE @2082 DATA
    _ZTSN5boost4asio15basic_io_objectINS0_21stream_socket_serviceINS0_2ip3tcpEEELb1EEE @2083 DATA
    _ZTSN5boost4asio19basic_stream_socketINS0_2ip3tcpENS0_21stream_socket_serviceIS3_EEEE @2084 DATA
    _ZTSN5boost4asio21basic_socket_iostreamINS0_2ip3tcpENS0_21stream_socket_serviceIS3_EENS_10posix_time5ptimeENS0_11time_traitsIS7_EENS0_22deadline_timer_serviceIS7_S9_EEEE @2085 DATA
    _ZTSN5boost4asio21stream_socket_serviceINS0_2ip3tcpEEE @2086 DATA
    _ZTSN5boost4asio22basic_socket_streambufINS0_2ip3tcpENS0_21stream_socket_serviceIS3_EENS_10posix_time5ptimeENS0_11time_traitsIS7_EENS0_22deadline_timer_serviceIS7_S9_EEEE @2087 DATA
    _ZTSN5boost4asio23socket_acceptor_serviceINS0_2ip3tcpEEE @2088 DATA
    _ZTSN5boost4asio2ip16resolver_serviceINS1_3tcpEEE @2089 DATA
    _ZTSN5boost4asio5error6detail13misc_categoryE @2090 DATA
    _ZTSN5boost4asio6detail10socket_ops12noop_deleterE @2091 DATA
    _ZTSN5boost4asio6detail10win_thread4funcINS1_21resolver_service_base22work_io_service_runnerEEE @2092 DATA
    _ZTSN5boost4asio6detail10win_thread4funcINS1_7binder1IPFvPNS1_14select_reactorEES6_EEEE @2093 DATA
    _ZTSN5boost4asio6detail10win_thread9func_baseE @2094 DATA
    _ZTSN5boost4asio6detail12service_baseINS0_21stream_socket_serviceINS0_2ip3tcpEEEEE @2095 DATA
    _ZTSN5boost4asio6detail12service_baseINS0_23socket_acceptor_serviceINS0_2ip3tcpEEEEE @2096 DATA
    _ZTSN5boost4asio6detail12service_baseINS0_2ip16resolver_serviceINS3_3tcpEEEEE @2097 DATA
    _ZTSN5boost4asio6detail12service_baseINS1_14select_reactorEEE @2098 DATA
    _ZTSN5boost4asio6detail12service_baseINS1_19win_iocp_io_serviceEEE @2099 DATA
    _ZTSN5boost4asio6detail14select_reactorE @2100 DATA
    _ZTSN5boost4asio6detail14typeid_wrapperINS0_21stream_socket_serviceINS0_2ip3tcpEEEEE @2101 DATA
    _ZTSN5boost4asio6detail14typeid_wrapperINS0_23socket_acceptor_serviceINS0_2ip3tcpEEEEE @2102 DATA
    _ZTSN5boost4asio6detail14typeid_wrapperINS0_2ip16resolver_serviceINS3_3tcpEEEEE @2103 DATA
    _ZTSN5boost4asio6detail14typeid_wrapperINS1_14select_reactorEEE @2104 DATA
    _ZTSN5boost4asio6detail14typeid_wrapperINS1_19win_iocp_io_serviceEEE @2105 DATA
    _ZTSN5boost4asio6detail19win_iocp_io_serviceE @2106 DATA
    _ZTSN5boost6detail11thread_dataINS_3_bi6bind_tIvPFVvR10ServerInfoENS2_5list1INS2_5valueISt17reference_wrapperIS5_EEEEEEEEE @2107 DATA
    _ZTSN5boost6detail15sp_counted_baseE @2108 DATA
    _ZTSN5boost6detail16stl_buf_unlockerISt15basic_stringbufIcSt11char_traitsIcESaIcEEcEE @2109 DATA
    _ZTSN5boost6detail16thread_data_baseE @2110 DATA
    _ZTSN5boost6detail17sp_counted_impl_pINS_11filesystem316filesystem_error5m_impEEE @2111 DATA
    _ZTSN5boost6detail17sp_counted_impl_pINS_11filesystem36detail11dir_itr_impEEE @2112 DATA
    _ZTSN5boost6detail17sp_counted_impl_pINS_16exception_detail10clone_implINS2_10bad_alloc_EEEEE @2113 DATA
    _ZTSN5boost6detail17sp_counted_impl_pINS_16exception_detail10clone_implINS2_14bad_exception_EEEEE @2114 DATA
    _ZTSN5boost6detail17sp_counted_impl_pINS_7signals6detail16basic_connectionEEE @2115 DATA
    _ZTSN5boost6detail17sp_counted_impl_pINS_7signals6detail16signal_base_implEEE @2116 DATA
    _ZTSN5boost6system10error_codeE @2117 DATA
    _ZTSN5boost6system12system_errorE @2118 DATA
    _ZTSN5boost6system14error_categoryE @2119 DATA
    _ZTSN5boost7signals6detail20group_bridge_compareISt4lessIiEiEE @2120 DATA
    _ZTSN5boost9date_time10date_facetINS_9gregorian4dateEcSt19ostreambuf_iteratorIcSt11char_traitsIcEEEE @2121 DATA
    _ZTSN5boost9date_time10time_facetINS_10posix_time5ptimeEcSt19ostreambuf_iteratorIcSt11char_traitsIcEEEE @2122 DATA
    _ZTSN5boost9exceptionE @2123 DATA
    _ZTSN5boost9gregorian11bad_weekdayE @2124 DATA
    _ZTSN5boost9gregorian15bad_day_of_yearE @2125 DATA
    _ZTSN5boost9gregorian16bad_day_of_monthE @2126 DATA
    _ZTSN5boost9gregorian8bad_yearE @2127 DATA
    _ZTSN5boost9gregorian9bad_monthE @2128 DATA
    _ZTSN9__gnu_cxx24__concurrence_lock_errorE @2129 DATA
    _ZTSN9__gnu_cxx26__concurrence_unlock_errorE @2130 DATA
    _ZTSN9__gnu_cxx7__mutexE @2131 DATA
    _ZTSNSt6locale5facetE @2132 DATA
    _ZTSPN5boost4asio19basic_stream_socketINS0_2ip3tcpENS0_21stream_socket_serviceIS3_EEEE @2133 DATA
    _ZTSSs @2134 DATA
    _ZTSSt11_Mutex_baseILN9__gnu_cxx12_Lock_policyE1EE @2135 DATA
    _ZTSSt11logic_error @2136 DATA
    _ZTSSt12bad_weak_ptr @2137 DATA
    _ZTSSt12codecvt_base @2138 DATA
    _ZTSSt12out_of_range @2139 DATA
    _ZTSSt13bad_exception @2140 DATA
    _ZTSSt13runtime_error @2141 DATA
    _ZTSSt15_Sp_counted_ptrIPSt6vectorIN5boost4asio2ip20basic_resolver_entryINS3_3tcpEEESaIS6_EELN9__gnu_cxx12_Lock_policyE1EE @2142 DATA
    _ZTSSt16_Sp_counted_baseILN9__gnu_cxx12_Lock_policyE1EE @2143 DATA
    _ZTSSt19_Sp_counted_deleterIP13_PluginHandleSt19_Sp_destroy_inplaceIS0_ESaIS0_ELN9__gnu_cxx12_Lock_policyE1EE @2144 DATA
    _ZTSSt19_Sp_counted_deleterIP15binded_functionIRFvvEESt19_Sp_destroy_inplaceIS3_ESaIS3_ELN9__gnu_cxx12_Lock_policyE1EE @2145 DATA
    _ZTSSt19_Sp_counted_deleterIP15binded_functionISt5_BindIFSt7_Mem_fnIM11serverClassFvvEEPS3_EEESt19_Sp_destroy_inplaceISA_ESaISA_ELN9__gnu_cxx12_Lock_policyE1EE @2146 DATA
    _ZTSSt19_Sp_counted_deleterIP5_TaskSt19_Sp_destroy_inplaceIS0_ESaIS0_ELN9__gnu_cxx12_Lock_policyE1EE @2147 DATA
    _ZTSSt19_Sp_counted_deleterIPN5boost4asio19basic_stream_socketINS1_2ip3tcpENS1_21stream_socket_serviceIS4_EEEESt19_Sp_destroy_inplaceIS7_ESaIS7_ELN9__gnu_cxx12_Lock_policyE1EE @2148 DATA
    _ZTSSt19_Sp_counted_deleterIPcSt19_Sp_destroy_inplaceIcESaIcELN9__gnu_cxx12_Lock_policyE1EE @2149 DATA
    _ZTSSt19_Sp_counted_deleterIPvN5boost4asio6detail10socket_ops12noop_deleterESaIiELN9__gnu_cxx12_Lock_policyE1EE @2150 DATA
    _ZTSSt19_Sp_destroy_inplaceI13_PluginHandleE @2151 DATA
    _ZTSSt19_Sp_destroy_inplaceI15binded_functionIRFvvEEE @2152 DATA
    _ZTSSt19_Sp_destroy_inplaceI15binded_functionISt5_BindIFSt7_Mem_fnIM11serverClassFvvEEPS3_EEEE @2153 DATA
    _ZTSSt19_Sp_destroy_inplaceI5_TaskE @2154 DATA
    _ZTSSt19_Sp_destroy_inplaceIN5boost4asio19basic_stream_socketINS1_2ip3tcpENS1_21stream_socket_serviceIS4_EEEEE @2155 DATA
    _ZTSSt19_Sp_destroy_inplaceIcE @2156 DATA
    _ZTSSt19_Sp_make_shared_tag @2157 DATA
    _ZTSSt23_Sp_counted_ptr_inplaceI13_PluginHandleSaIS0_ELN9__gnu_cxx12_Lock_policyE1EE @2158 DATA
    _ZTSSt23_Sp_counted_ptr_inplaceI15binded_functionIRFvvEESaIS3_ELN9__gnu_cxx12_Lock_policyE1EE @2159 DATA
    _ZTSSt23_Sp_counted_ptr_inplaceI15binded_functionISt5_BindIFSt7_Mem_fnIM11serverClassFvvEEPS3_EEESaISA_ELN9__gnu_cxx12_Lock_policyE1EE @2160 DATA
    _ZTSSt23_Sp_counted_ptr_inplaceI5_TaskSaIS0_ELN9__gnu_cxx12_Lock_policyE1EE @2161 DATA
    _ZTSSt23_Sp_counted_ptr_inplaceIN5boost4asio19basic_stream_socketINS1_2ip3tcpENS1_21stream_socket_serviceIS4_EEEESaIS7_ELN9__gnu_cxx12_Lock_policyE1EE @2162 DATA
    _ZTSSt23_Sp_counted_ptr_inplaceIcSaIcELN9__gnu_cxx12_Lock_policyE1EE @2163 DATA
    _ZTSSt23__codecvt_abstract_baseIwciE @2164 DATA
    _ZTSSt7codecvtIwciE @2165 DATA
    _ZTSSt8bad_cast @2166 DATA
    _ZTSSt9bad_alloc @2167 DATA
    _ZTSSt9exception @2168 DATA
    _ZTTN5boost4asio21basic_socket_iostreamINS0_2ip3tcpENS0_21stream_socket_serviceIS3_EENS_10posix_time5ptimeENS0_11time_traitsIS7_EENS0_22deadline_timer_serviceIS7_S9_EEEE @2169 DATA
    _ZTV11PluginNoLib @2170 DATA
    _ZTV13PluginLibFail @2171 DATA
    _ZTV13bad_type_name @2172 DATA
    _ZTV15PluginInterface @2173 DATA
    _ZTV15PluginNotLoaded @2174 DATA
    _ZTV15binded_functionIRFvvEE @2175 DATA
    _ZTV15binded_functionISt5_BindIFSt7_Mem_fnIM11serverClassFvvEEPS2_EEE @2176 DATA
    _ZTV15boost_exception @2177 DATA
    _ZTV18PluginNoInstantate @2178 DATA
    _ZTV19AftershockException @2179 DATA
    _ZTV20binded_function_base @2180 DATA
    _ZTV20windows_file_codecvt @2181 DATA
    _ZTV26AftershockRuntimeException @2182 DATA
    _ZTVN5boost11filesystem316filesystem_errorE @2183 DATA
    _ZTVN5boost16bad_lexical_castE @2184 DATA
    _ZTVN5boost16exception_detail10bad_alloc_E @2185 DATA
    _ZTVN5boost16exception_detail10clone_baseE @2186 DATA
    _ZTVN5boost16exception_detail10clone_implINS0_10bad_alloc_EEE @2187 DATA
    _ZTVN5boost16exception_detail10clone_implINS0_14bad_exception_EEE @2188 DATA
    _ZTVN5boost16exception_detail10clone_implINS0_19error_info_injectorINS_16bad_lexical_castEEEEE @2189 DATA
    _ZTVN5boost16exception_detail10clone_implINS0_19error_info_injectorINS_17bad_function_callEEEEE @2190 DATA
    _ZTVN5boost16exception_detail10clone_implINS0_19error_info_injectorINS_21thread_resource_errorEEEEE @2191 DATA
    _ZTVN5boost16exception_detail10clone_implINS0_19error_info_injectorINS_6system12system_errorEEEEE @2192 DATA
    _ZTVN5boost16exception_detail10clone_implINS0_19error_info_injectorINS_9gregorian11bad_weekdayEEEEE @2193 DATA
    _ZTVN5boost16exception_detail10clone_implINS0_19error_info_injectorINS_9gregorian15bad_day_of_yearEEEEE @2194 DATA
    _ZTVN5boost16exception_detail10clone_implINS0_19error_info_injectorINS_9gregorian16bad_day_of_monthEEEEE @2195 DATA
    _ZTVN5boost16exception_detail10clone_implINS0_19error_info_injectorINS_9gregorian8bad_yearEEEEE @2196 DATA
    _ZTVN5boost16exception_detail10clone_implINS0_19error_info_injectorINS_9gregorian9bad_monthEEEEE @2197 DATA
    _ZTVN5boost16exception_detail10clone_implINS0_19error_info_injectorISt12out_of_rangeEEEE @2198 DATA
    _ZTVN5boost16exception_detail10clone_implINS0_19error_info_injectorISt13runtime_errorEEEE @2199 DATA
    _ZTVN5boost16exception_detail10clone_implINS0_19error_info_injectorISt9bad_allocEEEE @2200 DATA
    _ZTVN5boost16exception_detail14bad_exception_E @2201 DATA
    _ZTVN5boost16exception_detail19error_info_injectorINS_16bad_lexical_castEEE @2202 DATA
    _ZTVN5boost16exception_detail19error_info_injectorINS_17bad_function_callEEE @2203 DATA
    _ZTVN5boost16exception_detail19error_info_injectorINS_21thread_resource_errorEEE @2204 DATA
    _ZTVN5boost16exception_detail19error_info_injectorINS_6system12system_errorEEE @2205 DATA
    _ZTVN5boost16exception_detail19error_info_injectorINS_9gregorian11bad_weekdayEEE @2206 DATA
    _ZTVN5boost16exception_detail19error_info_injectorINS_9gregorian15bad_day_of_yearEEE @2207 DATA
    _ZTVN5boost16exception_detail19error_info_injectorINS_9gregorian16bad_day_of_monthEEE @2208 DATA
    _ZTVN5boost16exception_detail19error_info_injectorINS_9gregorian8bad_yearEEE @2209 DATA
    _ZTVN5boost16exception_detail19error_info_injectorINS_9gregorian9bad_monthEEE @2210 DATA
    _ZTVN5boost16exception_detail19error_info_injectorISt12out_of_rangeEE @2211 DATA
    _ZTVN5boost16exception_detail19error_info_injectorISt13runtime_errorEE @2212 DATA
    _ZTVN5boost16exception_detail19error_info_injectorISt9bad_allocEE @2213 DATA
    _ZTVN5boost16thread_exceptionE @2214 DATA
    _ZTVN5boost17bad_function_callE @2215 DATA
    _ZTVN5boost21thread_resource_errorE @2216 DATA
    _ZTVN5boost3any11placeholderE @2217 DATA
    _ZTVN5boost3any6holderI15Combine_ResultsISt4listIbSaIbEEEEE @2218 DATA
    _ZTVN5boost3any6holderINS_10last_valueIvEEEE @2219 DATA
    _ZTVN5boost4asio10io_service7serviceE @2220 DATA
    _ZTVN5boost4asio21basic_socket_iostreamINS0_2ip3tcpENS0_21stream_socket_serviceIS3_EENS_10posix_time5ptimeENS0_11time_traitsIS7_EENS0_22deadline_timer_serviceIS7_S9_EEEE @2221 DATA
    _ZTVN5boost4asio21stream_socket_serviceINS0_2ip3tcpEEE @2222 DATA
    _ZTVN5boost4asio22basic_socket_streambufINS0_2ip3tcpENS0_21stream_socket_serviceIS3_EENS_10posix_time5ptimeENS0_11time_traitsIS7_EENS0_22deadline_timer_serviceIS7_S9_EEEE @2223 DATA
    _ZTVN5boost4asio23socket_acceptor_serviceINS0_2ip3tcpEEE @2224 DATA
    _ZTVN5boost4asio2ip16resolver_serviceINS1_3tcpEEE @2225 DATA
    _ZTVN5boost4asio5error6detail13misc_categoryE @2226 DATA
    _ZTVN5boost4asio6detail10win_thread4funcINS1_21resolver_service_base22work_io_service_runnerEEE @2227 DATA
    _ZTVN5boost4asio6detail10win_thread4funcINS1_7binder1IPFvPNS1_14select_reactorEES6_EEEE @2228 DATA
    _ZTVN5boost4asio6detail10win_thread9func_baseE @2229 DATA
    _ZTVN5boost4asio6detail12service_baseINS0_21stream_socket_serviceINS0_2ip3tcpEEEEE @2230 DATA
    _ZTVN5boost4asio6detail12service_baseINS0_23socket_acceptor_serviceINS0_2ip3tcpEEEEE @2231 DATA
    _ZTVN5boost4asio6detail12service_baseINS0_2ip16resolver_serviceINS3_3tcpEEEEE @2232 DATA
    _ZTVN5boost4asio6detail12service_baseINS1_14select_reactorEEE @2233 DATA
    _ZTVN5boost4asio6detail12service_baseINS1_19win_iocp_io_serviceEEE @2234 DATA
    _ZTVN5boost4asio6detail14select_reactorE @2235 DATA
    _ZTVN5boost4asio6detail19win_iocp_io_serviceE @2236 DATA
    _ZTVN5boost6detail11thread_dataINS_3_bi6bind_tIvPFVvR10ServerInfoENS2_5list1INS2_5valueISt17reference_wrapperIS5_EEEEEEEEE @2237 DATA
    _ZTVN5boost6detail15sp_counted_baseE @2238 DATA
    _ZTVN5boost6detail16stl_buf_unlockerISt15basic_stringbufIcSt11char_traitsIcESaIcEEcEE @2239 DATA
    _ZTVN5boost6detail16thread_data_baseE @2240 DATA
    _ZTVN5boost6detail17sp_counted_impl_pINS_11filesystem316filesystem_error5m_impEEE @2241 DATA
    _ZTVN5boost6detail17sp_counted_impl_pINS_11filesystem36detail11dir_itr_impEEE @2242 DATA
    _ZTVN5boost6detail17sp_counted_impl_pINS_16exception_detail10clone_implINS2_10bad_alloc_EEEEE @2243 DATA
    _ZTVN5boost6detail17sp_counted_impl_pINS_16exception_detail10clone_implINS2_14bad_exception_EEEEE @2244 DATA
    _ZTVN5boost6detail17sp_counted_impl_pINS_7signals6detail16basic_connectionEEE @2245 DATA
    _ZTVN5boost6detail17sp_counted_impl_pINS_7signals6detail16signal_base_implEEE @2246 DATA
    _ZTVN5boost6system12system_errorE @2247 DATA
    _ZTVN5boost6system14error_categoryE @2248 DATA
    _ZTVN5boost9date_time10date_facetINS_9gregorian4dateEcSt19ostreambuf_iteratorIcSt11char_traitsIcEEEE @2249 DATA
    _ZTVN5boost9date_time10time_facetINS_10posix_time5ptimeEcSt19ostreambuf_iteratorIcSt11char_traitsIcEEEE @2250 DATA
    _ZTVN5boost9exceptionE @2251 DATA
    _ZTVN5boost9gregorian11bad_weekdayE @2252 DATA
    _ZTVN5boost9gregorian15bad_day_of_yearE @2253 DATA
    _ZTVN5boost9gregorian16bad_day_of_monthE @2254 DATA
    _ZTVN5boost9gregorian8bad_yearE @2255 DATA
    _ZTVN5boost9gregorian9bad_monthE @2256 DATA
    _ZTVN9__gnu_cxx24__concurrence_lock_errorE @2257 DATA
    _ZTVN9__gnu_cxx26__concurrence_unlock_errorE @2258 DATA
    _ZTVSt15_Sp_counted_ptrIPSt6vectorIN5boost4asio2ip20basic_resolver_entryINS3_3tcpEEESaIS6_EELN9__gnu_cxx12_Lock_policyE1EE @2259 DATA
    _ZTVSt16_Sp_counted_baseILN9__gnu_cxx12_Lock_policyE1EE @2260 DATA
    _ZTVSt19_Sp_counted_deleterIP13_PluginHandleSt19_Sp_destroy_inplaceIS0_ESaIS0_ELN9__gnu_cxx12_Lock_policyE1EE @2261 DATA
    _ZTVSt19_Sp_counted_deleterIP15binded_functionIRFvvEESt19_Sp_destroy_inplaceIS3_ESaIS3_ELN9__gnu_cxx12_Lock_policyE1EE @2262 DATA
    _ZTVSt19_Sp_counted_deleterIP15binded_functionISt5_BindIFSt7_Mem_fnIM11serverClassFvvEEPS3_EEESt19_Sp_destroy_inplaceISA_ESaISA_ELN9__gnu_cxx12_Lock_policyE1EE @2263 DATA
    _ZTVSt19_Sp_counted_deleterIP5_TaskSt19_Sp_destroy_inplaceIS0_ESaIS0_ELN9__gnu_cxx12_Lock_policyE1EE @2264 DATA
    _ZTVSt19_Sp_counted_deleterIPN5boost4asio19basic_stream_socketINS1_2ip3tcpENS1_21stream_socket_serviceIS4_EEEESt19_Sp_destroy_inplaceIS7_ESaIS7_ELN9__gnu_cxx12_Lock_policyE1EE @2265 DATA
    _ZTVSt19_Sp_counted_deleterIPcSt19_Sp_destroy_inplaceIcESaIcELN9__gnu_cxx12_Lock_policyE1EE @2266 DATA
    _ZTVSt19_Sp_counted_deleterIPvN5boost4asio6detail10socket_ops12noop_deleterESaIiELN9__gnu_cxx12_Lock_policyE1EE @2267 DATA
    _ZTVSt23_Sp_counted_ptr_inplaceI13_PluginHandleSaIS0_ELN9__gnu_cxx12_Lock_policyE1EE @2268 DATA
    _ZTVSt23_Sp_counted_ptr_inplaceI15binded_functionIRFvvEESaIS3_ELN9__gnu_cxx12_Lock_policyE1EE @2269 DATA
    _ZTVSt23_Sp_counted_ptr_inplaceI15binded_functionISt5_BindIFSt7_Mem_fnIM11serverClassFvvEEPS3_EEESaISA_ELN9__gnu_cxx12_Lock_policyE1EE @2270 DATA
    _ZTVSt23_Sp_counted_ptr_inplaceI5_TaskSaIS0_ELN9__gnu_cxx12_Lock_policyE1EE @2271 DATA
    _ZTVSt23_Sp_counted_ptr_inplaceIN5boost4asio19basic_stream_socketINS1_2ip3tcpENS1_21stream_socket_serviceIS4_EEEESaIS7_ELN9__gnu_cxx12_Lock_policyE1EE @2272 DATA
    _ZTVSt23_Sp_counted_ptr_inplaceIcSaIcELN9__gnu_cxx12_Lock_policyE1EE @2273 DATA
    _ZThn12_N5boost16exception_detail10clone_implINS0_19error_info_injectorINS_16bad_lexical_castEEEED0Ev @2274
    _ZThn12_N5boost16exception_detail10clone_implINS0_19error_info_injectorINS_16bad_lexical_castEEEED1Ev @2275
    _ZThn12_N5boost16exception_detail19error_info_injectorINS_16bad_lexical_castEED0Ev @2276
    _ZThn12_N5boost16exception_detail19error_info_injectorINS_16bad_lexical_castEED1Ev @2277
    _ZThn20_N5boost16exception_detail10bad_alloc_D0Ev @2278
    _ZThn20_N5boost16exception_detail10bad_alloc_D1Ev @2279
    _ZThn20_N5boost16exception_detail10clone_implINS0_10bad_alloc_EED0Ev @2280
    _ZThn20_N5boost16exception_detail10clone_implINS0_10bad_alloc_EED1Ev @2281
    _ZThn20_N5boost16exception_detail10clone_implINS0_14bad_exception_EED0Ev @2282
    _ZThn20_N5boost16exception_detail10clone_implINS0_14bad_exception_EED1Ev @2283
    _ZThn20_N5boost16exception_detail10clone_implINS0_19error_info_injectorINS_6system12system_errorEEEED0Ev @2284
    _ZThn20_N5boost16exception_detail10clone_implINS0_19error_info_injectorINS_6system12system_errorEEEED1Ev @2285
    _ZThn20_N5boost16exception_detail14bad_exception_D0Ev @2286
    _ZThn20_N5boost16exception_detail14bad_exception_D1Ev @2287
    _ZThn20_N5boost16exception_detail19error_info_injectorINS_6system12system_errorEED0Ev @2288
    _ZThn20_N5boost16exception_detail19error_info_injectorINS_6system12system_errorEED1Ev @2289
    _ZThn24_N5boost16exception_detail10clone_implINS0_10bad_alloc_EED0Ev @2290
    _ZThn24_N5boost16exception_detail10clone_implINS0_10bad_alloc_EED1Ev @2291
    _ZThn24_N5boost16exception_detail10clone_implINS0_14bad_exception_EED0Ev @2292
    _ZThn24_N5boost16exception_detail10clone_implINS0_14bad_exception_EED1Ev @2293
    _ZThn24_N5boost16exception_detail10clone_implINS0_19error_info_injectorISt9bad_allocEEED0Ev @2294
    _ZThn24_N5boost16exception_detail10clone_implINS0_19error_info_injectorISt9bad_allocEEED1Ev @2295
    _ZThn24_NK5boost16exception_detail10clone_implINS0_10bad_alloc_EE5cloneEv @2296
    _ZThn24_NK5boost16exception_detail10clone_implINS0_10bad_alloc_EE7rethrowEv @2297
    _ZThn24_NK5boost16exception_detail10clone_implINS0_14bad_exception_EE5cloneEv @2298
    _ZThn24_NK5boost16exception_detail10clone_implINS0_14bad_exception_EE7rethrowEv @2299
    _ZThn24_NK5boost16exception_detail10clone_implINS0_19error_info_injectorISt9bad_allocEEE5cloneEv @2300
    _ZThn24_NK5boost16exception_detail10clone_implINS0_19error_info_injectorISt9bad_allocEEE7rethrowEv @2301
    _ZThn28_N5boost16exception_detail10clone_implINS0_19error_info_injectorINS_17bad_function_callEEEED0Ev @2302
    _ZThn28_N5boost16exception_detail10clone_implINS0_19error_info_injectorINS_17bad_function_callEEEED1Ev @2303
    _ZThn28_N5boost16exception_detail10clone_implINS0_19error_info_injectorINS_21thread_resource_errorEEEED0Ev @2304
    _ZThn28_N5boost16exception_detail10clone_implINS0_19error_info_injectorINS_21thread_resource_errorEEEED1Ev @2305
    _ZThn28_N5boost16exception_detail10clone_implINS0_19error_info_injectorINS_9gregorian11bad_weekdayEEEED0Ev @2306
    _ZThn28_N5boost16exception_detail10clone_implINS0_19error_info_injectorINS_9gregorian11bad_weekdayEEEED1Ev @2307
    _ZThn28_N5boost16exception_detail10clone_implINS0_19error_info_injectorINS_9gregorian15bad_day_of_yearEEEED0Ev @2308
    _ZThn28_N5boost16exception_detail10clone_implINS0_19error_info_injectorINS_9gregorian15bad_day_of_yearEEEED1Ev @2309
    _ZThn28_N5boost16exception_detail10clone_implINS0_19error_info_injectorINS_9gregorian16bad_day_of_monthEEEED0Ev @2310
    _ZThn28_N5boost16exception_detail10clone_implINS0_19error_info_injectorINS_9gregorian16bad_day_of_monthEEEED1Ev @2311
    _ZThn28_N5boost16exception_detail10clone_implINS0_19error_info_injectorINS_9gregorian8bad_yearEEEED0Ev @2312
    _ZThn28_N5boost16exception_detail10clone_implINS0_19error_info_injectorINS_9gregorian8bad_yearEEEED1Ev @2313
    _ZThn28_N5boost16exception_detail10clone_implINS0_19error_info_injectorINS_9gregorian9bad_monthEEEED0Ev @2314
    _ZThn28_N5boost16exception_detail10clone_implINS0_19error_info_injectorINS_9gregorian9bad_monthEEEED1Ev @2315
    _ZThn28_N5boost16exception_detail10clone_implINS0_19error_info_injectorISt12out_of_rangeEEED0Ev @2316
    _ZThn28_N5boost16exception_detail10clone_implINS0_19error_info_injectorISt12out_of_rangeEEED1Ev @2317
    _ZThn28_N5boost16exception_detail10clone_implINS0_19error_info_injectorISt13runtime_errorEEED0Ev @2318
    _ZThn28_N5boost16exception_detail10clone_implINS0_19error_info_injectorISt13runtime_errorEEED1Ev @2319
    _ZThn28_NK5boost16exception_detail10clone_implINS0_19error_info_injectorINS_17bad_function_callEEEE5cloneEv @2320
    _ZThn28_NK5boost16exception_detail10clone_implINS0_19error_info_injectorINS_17bad_function_callEEEE7rethrowEv @2321
    _ZThn28_NK5boost16exception_detail10clone_implINS0_19error_info_injectorINS_21thread_resource_errorEEEE5cloneEv @2322
    _ZThn28_NK5boost16exception_detail10clone_implINS0_19error_info_injectorINS_21thread_resource_errorEEEE7rethrowEv @2323
    _ZThn28_NK5boost16exception_detail10clone_implINS0_19error_info_injectorINS_9gregorian11bad_weekdayEEEE5cloneEv @2324
    _ZThn28_NK5boost16exception_detail10clone_implINS0_19error_info_injectorINS_9gregorian11bad_weekdayEEEE7rethrowEv @2325
    _ZThn28_NK5boost16exception_detail10clone_implINS0_19error_info_injectorINS_9gregorian15bad_day_of_yearEEEE5cloneEv @2326
    _ZThn28_NK5boost16exception_detail10clone_implINS0_19error_info_injectorINS_9gregorian15bad_day_of_yearEEEE7rethrowEv @2327
    _ZThn28_NK5boost16exception_detail10clone_implINS0_19error_info_injectorINS_9gregorian16bad_day_of_monthEEEE5cloneEv @2328
    _ZThn28_NK5boost16exception_detail10clone_implINS0_19error_info_injectorINS_9gregorian16bad_day_of_monthEEEE7rethrowEv @2329
    _ZThn28_NK5boost16exception_detail10clone_implINS0_19error_info_injectorINS_9gregorian8bad_yearEEEE5cloneEv @2330
    _ZThn28_NK5boost16exception_detail10clone_implINS0_19error_info_injectorINS_9gregorian8bad_yearEEEE7rethrowEv @2331
    _ZThn28_NK5boost16exception_detail10clone_implINS0_19error_info_injectorINS_9gregorian9bad_monthEEEE5cloneEv @2332
    _ZThn28_NK5boost16exception_detail10clone_implINS0_19error_info_injectorINS_9gregorian9bad_monthEEEE7rethrowEv @2333
    _ZThn28_NK5boost16exception_detail10clone_implINS0_19error_info_injectorISt12out_of_rangeEEE5cloneEv @2334
    _ZThn28_NK5boost16exception_detail10clone_implINS0_19error_info_injectorISt12out_of_rangeEEE7rethrowEv @2335
    _ZThn28_NK5boost16exception_detail10clone_implINS0_19error_info_injectorISt13runtime_errorEEE5cloneEv @2336
    _ZThn28_NK5boost16exception_detail10clone_implINS0_19error_info_injectorISt13runtime_errorEEE7rethrowEv @2337
    _ZThn32_N5boost16exception_detail10clone_implINS0_19error_info_injectorINS_16bad_lexical_castEEEED0Ev @2338
    _ZThn32_N5boost16exception_detail10clone_implINS0_19error_info_injectorINS_16bad_lexical_castEEEED1Ev @2339
    _ZThn32_NK5boost16exception_detail10clone_implINS0_19error_info_injectorINS_16bad_lexical_castEEEE5cloneEv @2340
    _ZThn32_NK5boost16exception_detail10clone_implINS0_19error_info_injectorINS_16bad_lexical_castEEEE7rethrowEv @2341
    _ZThn40_N5boost16exception_detail10clone_implINS0_19error_info_injectorINS_6system12system_errorEEEED0Ev @2342
    _ZThn40_N5boost16exception_detail10clone_implINS0_19error_info_injectorINS_6system12system_errorEEEED1Ev @2343
    _ZThn40_NK5boost16exception_detail10clone_implINS0_19error_info_injectorINS_6system12system_errorEEEE5cloneEv @2344
    _ZThn40_NK5boost16exception_detail10clone_implINS0_19error_info_injectorINS_6system12system_errorEEEE7rethrowEv @2345
    _ZThn4_N5boost16exception_detail10clone_implINS0_19error_info_injectorISt9bad_allocEEED0Ev @2346
    _ZThn4_N5boost16exception_detail10clone_implINS0_19error_info_injectorISt9bad_allocEEED1Ev @2347
    _ZThn4_N5boost16exception_detail19error_info_injectorISt9bad_allocED0Ev @2348
    _ZThn4_N5boost16exception_detail19error_info_injectorISt9bad_allocED1Ev @2349
    _ZThn8_N5boost16exception_detail10clone_implINS0_19error_info_injectorINS_17bad_function_callEEEED0Ev @2350
    _ZThn8_N5boost16exception_detail10clone_implINS0_19error_info_injectorINS_17bad_function_callEEEED1Ev @2351
    _ZThn8_N5boost16exception_detail10clone_implINS0_19error_info_injectorINS_21thread_resource_errorEEEED0Ev @2352
    _ZThn8_N5boost16exception_detail10clone_implINS0_19error_info_injectorINS_21thread_resource_errorEEEED1Ev @2353
    _ZThn8_N5boost16exception_detail10clone_implINS0_19error_info_injectorINS_9gregorian11bad_weekdayEEEED0Ev @2354
    _ZThn8_N5boost16exception_detail10clone_implINS0_19error_info_injectorINS_9gregorian11bad_weekdayEEEED1Ev @2355
    _ZThn8_N5boost16exception_detail10clone_implINS0_19error_info_injectorINS_9gregorian15bad_day_of_yearEEEED0Ev @2356
    _ZThn8_N5boost16exception_detail10clone_implINS0_19error_info_injectorINS_9gregorian15bad_day_of_yearEEEED1Ev @2357
    _ZThn8_N5boost16exception_detail10clone_implINS0_19error_info_injectorINS_9gregorian16bad_day_of_monthEEEED0Ev @2358
    _ZThn8_N5boost16exception_detail10clone_implINS0_19error_info_injectorINS_9gregorian16bad_day_of_monthEEEED1Ev @2359
    _ZThn8_N5boost16exception_detail10clone_implINS0_19error_info_injectorINS_9gregorian8bad_yearEEEED0Ev @2360
    _ZThn8_N5boost16exception_detail10clone_implINS0_19error_info_injectorINS_9gregorian8bad_yearEEEED1Ev @2361
    _ZThn8_N5boost16exception_detail10clone_implINS0_19error_info_injectorINS_9gregorian9bad_monthEEEED0Ev @2362
    _ZThn8_N5boost16exception_detail10clone_implINS0_19error_info_injectorINS_9gregorian9bad_monthEEEED1Ev @2363
    _ZThn8_N5boost16exception_detail10clone_implINS0_19error_info_injectorISt12out_of_rangeEEED0Ev @2364
    _ZThn8_N5boost16exception_detail10clone_implINS0_19error_info_injectorISt12out_of_rangeEEED1Ev @2365
    _ZThn8_N5boost16exception_detail10clone_implINS0_19error_info_injectorISt13runtime_errorEEED0Ev @2366
    _ZThn8_N5boost16exception_detail10clone_implINS0_19error_info_injectorISt13runtime_errorEEED1Ev @2367
    _ZThn8_N5boost16exception_detail19error_info_injectorINS_17bad_function_callEED0Ev @2368
    _ZThn8_N5boost16exception_detail19error_info_injectorINS_17bad_function_callEED1Ev @2369
    _ZThn8_N5boost16exception_detail19error_info_injectorINS_21thread_resource_errorEED0Ev @2370
    _ZThn8_N5boost16exception_detail19error_info_injectorINS_21thread_resource_errorEED1Ev @2371
    _ZThn8_N5boost16exception_detail19error_info_injectorINS_9gregorian11bad_weekdayEED0Ev @2372
    _ZThn8_N5boost16exception_detail19error_info_injectorINS_9gregorian11bad_weekdayEED1Ev @2373
    _ZThn8_N5boost16exception_detail19error_info_injectorINS_9gregorian15bad_day_of_yearEED0Ev @2374
    _ZThn8_N5boost16exception_detail19error_info_injectorINS_9gregorian15bad_day_of_yearEED1Ev @2375
    _ZThn8_N5boost16exception_detail19error_info_injectorINS_9gregorian16bad_day_of_monthEED0Ev @2376
    _ZThn8_N5boost16exception_detail19error_info_injectorINS_9gregorian16bad_day_of_monthEED1Ev @2377
    _ZThn8_N5boost16exception_detail19error_info_injectorINS_9gregorian8bad_yearEED0Ev @2378
    _ZThn8_N5boost16exception_detail19error_info_injectorINS_9gregorian8bad_yearEED1Ev @2379
    _ZThn8_N5boost16exception_detail19error_info_injectorINS_9gregorian9bad_monthEED0Ev @2380
    _ZThn8_N5boost16exception_detail19error_info_injectorINS_9gregorian9bad_monthEED1Ev @2381
    _ZThn8_N5boost16exception_detail19error_info_injectorISt12out_of_rangeED0Ev @2382
    _ZThn8_N5boost16exception_detail19error_info_injectorISt12out_of_rangeED1Ev @2383
    _ZThn8_N5boost16exception_detail19error_info_injectorISt13runtime_errorED0Ev @2384
    _ZThn8_N5boost16exception_detail19error_info_injectorISt13runtime_errorED1Ev @2385
    _ZThn8_N5boost4asio21basic_socket_iostreamINS0_2ip3tcpENS0_21stream_socket_serviceIS3_EENS_10posix_time5ptimeENS0_11time_traitsIS7_EENS0_22deadline_timer_serviceIS7_S9_EEED0Ev @2386
    _ZThn8_N5boost4asio21basic_socket_iostreamINS0_2ip3tcpENS0_21stream_socket_serviceIS3_EENS_10posix_time5ptimeENS0_11time_traitsIS7_EENS0_22deadline_timer_serviceIS7_S9_EEED1Ev @2387
    _ZTv0_n12_N5boost4asio21basic_socket_iostreamINS0_2ip3tcpENS0_21stream_socket_serviceIS3_EENS_10posix_time5ptimeENS0_11time_traitsIS7_EENS0_22deadline_timer_serviceIS7_S9_EEED0Ev @2388
    _ZTv0_n12_N5boost4asio21basic_socket_iostreamINS0_2ip3tcpENS0_21stream_socket_serviceIS3_EENS_10posix_time5ptimeENS0_11time_traitsIS7_EENS0_22deadline_timer_serviceIS7_S9_EEED1Ev @2389
    _ZZN5boost16exception_detail27get_static_exception_objectINS0_10bad_alloc_EEENS_13exception_ptrEvE2ep @2390 DATA
    _ZZN5boost16exception_detail27get_static_exception_objectINS0_14bad_exception_EEENS_13exception_ptrEvE2ep @2391 DATA
    _ZZN5boost4asio5error17get_misc_categoryEvE8instance @2392 DATA
    _ZZN5boost4asio6detail8hash_mapIjNS1_16reactor_op_queueIjE10operationsEE9hash_sizeEjE5sizes @2393 DATA
    _ZZN5boost6detail15name_once_mutexEPcPvE16fixed_mutex_name @2394 DATA
    _ZZN5boost9function2IbNS_7signals6detail12stored_groupES3_E9assign_toINS2_20group_bridge_compareISt4lessIiEiEEEEvT_E13stored_vtable @2395 DATA
    _ZdlPvS_ @2396
    _ZnwjPv @2397
    __crt_xl_tls_callback__ @2398 DATA
    _get_output_format @2399
    _gmonparam @2400 DATA
    _mcleanup @2401
    mcount @2402
    moncontrol @2403
    monstartup @2404
    profil @2405
    profile_ctl @2406
